
SensorRFID.elf:     file format elf32-avr

Sections:
Idx Name          Size      VMA       LMA       File off  Algn
  0 .data         000005b4  00800100  00001e82  00001f16  2**0
                  CONTENTS, ALLOC, LOAD, DATA
  1 .text         00001e82  00000000  00000000  00000094  2**1
                  CONTENTS, ALLOC, LOAD, READONLY, CODE
  2 .bss          000000af  008006b4  008006b4  000024ca  2**0
                  ALLOC
  3 .comment      0000005c  00000000  00000000  000024ca  2**0
                  CONTENTS, READONLY
  4 .note.gnu.avr.deviceinfo 00000040  00000000  00000000  00002528  2**2
                  CONTENTS, READONLY
  5 .debug_aranges 000002d8  00000000  00000000  00002568  2**0
                  CONTENTS, READONLY, DEBUGGING
  6 .debug_info   00003a87  00000000  00000000  00002840  2**0
                  CONTENTS, READONLY, DEBUGGING
  7 .debug_abbrev 000011da  00000000  00000000  000062c7  2**0
                  CONTENTS, READONLY, DEBUGGING
  8 .debug_line   00001aaa  00000000  00000000  000074a1  2**0
                  CONTENTS, READONLY, DEBUGGING
  9 .debug_frame  0000099c  00000000  00000000  00008f4c  2**2
                  CONTENTS, READONLY, DEBUGGING
 10 .debug_str    00000df5  00000000  00000000  000098e8  2**0
                  CONTENTS, READONLY, DEBUGGING
 11 .debug_loc    00002444  00000000  00000000  0000a6dd  2**0
                  CONTENTS, READONLY, DEBUGGING
 12 .debug_ranges 00000270  00000000  00000000  0000cb21  2**0
                  CONTENTS, READONLY, DEBUGGING

Disassembly of section .text:

00000000 <__vectors>:
       0:	0c 94 34 00 	jmp	0x68	; 0x68 <__ctors_end>
       4:	0c 94 51 00 	jmp	0xa2	; 0xa2 <__bad_interrupt>
       8:	0c 94 51 00 	jmp	0xa2	; 0xa2 <__bad_interrupt>
       c:	0c 94 51 00 	jmp	0xa2	; 0xa2 <__bad_interrupt>
      10:	0c 94 51 00 	jmp	0xa2	; 0xa2 <__bad_interrupt>
      14:	0c 94 37 08 	jmp	0x106e	; 0x106e <__vector_5>
      18:	0c 94 51 00 	jmp	0xa2	; 0xa2 <__bad_interrupt>
      1c:	0c 94 51 00 	jmp	0xa2	; 0xa2 <__bad_interrupt>
      20:	0c 94 51 00 	jmp	0xa2	; 0xa2 <__bad_interrupt>
      24:	0c 94 51 00 	jmp	0xa2	; 0xa2 <__bad_interrupt>
      28:	0c 94 51 00 	jmp	0xa2	; 0xa2 <__bad_interrupt>
      2c:	0c 94 51 00 	jmp	0xa2	; 0xa2 <__bad_interrupt>
      30:	0c 94 51 00 	jmp	0xa2	; 0xa2 <__bad_interrupt>
      34:	0c 94 78 08 	jmp	0x10f0	; 0x10f0 <__vector_13>
      38:	0c 94 51 00 	jmp	0xa2	; 0xa2 <__bad_interrupt>
      3c:	0c 94 51 00 	jmp	0xa2	; 0xa2 <__bad_interrupt>
      40:	0c 94 51 00 	jmp	0xa2	; 0xa2 <__bad_interrupt>
      44:	0c 94 51 00 	jmp	0xa2	; 0xa2 <__bad_interrupt>
      48:	0c 94 f2 02 	jmp	0x5e4	; 0x5e4 <__vector_18>
      4c:	0c 94 51 00 	jmp	0xa2	; 0xa2 <__bad_interrupt>
      50:	0c 94 51 00 	jmp	0xa2	; 0xa2 <__bad_interrupt>
      54:	0c 94 51 00 	jmp	0xa2	; 0xa2 <__bad_interrupt>
      58:	0c 94 51 00 	jmp	0xa2	; 0xa2 <__bad_interrupt>
      5c:	0c 94 51 00 	jmp	0xa2	; 0xa2 <__bad_interrupt>
      60:	0c 94 51 00 	jmp	0xa2	; 0xa2 <__bad_interrupt>
      64:	0c 94 51 00 	jmp	0xa2	; 0xa2 <__bad_interrupt>

00000068 <__ctors_end>:
      68:	11 24       	eor	r1, r1
      6a:	1f be       	out	0x3f, r1	; 63
      6c:	cf ef       	ldi	r28, 0xFF	; 255
      6e:	d8 e0       	ldi	r29, 0x08	; 8
      70:	de bf       	out	0x3e, r29	; 62
      72:	cd bf       	out	0x3d, r28	; 61

00000074 <__do_copy_data>:
      74:	16 e0       	ldi	r17, 0x06	; 6
      76:	a0 e0       	ldi	r26, 0x00	; 0
      78:	b1 e0       	ldi	r27, 0x01	; 1
      7a:	e2 e8       	ldi	r30, 0x82	; 130
      7c:	fe e1       	ldi	r31, 0x1E	; 30
      7e:	02 c0       	rjmp	.+4      	; 0x84 <__do_copy_data+0x10>
      80:	05 90       	lpm	r0, Z+
      82:	0d 92       	st	X+, r0
      84:	a4 3b       	cpi	r26, 0xB4	; 180
      86:	b1 07       	cpc	r27, r17
      88:	d9 f7       	brne	.-10     	; 0x80 <__do_copy_data+0xc>

0000008a <__do_clear_bss>:
      8a:	27 e0       	ldi	r18, 0x07	; 7
      8c:	a4 eb       	ldi	r26, 0xB4	; 180
      8e:	b6 e0       	ldi	r27, 0x06	; 6
      90:	01 c0       	rjmp	.+2      	; 0x94 <.do_clear_bss_start>

00000092 <.do_clear_bss_loop>:
      92:	1d 92       	st	X+, r1

00000094 <.do_clear_bss_start>:
      94:	a3 36       	cpi	r26, 0x63	; 99
      96:	b2 07       	cpc	r27, r18
      98:	e1 f7       	brne	.-8      	; 0x92 <.do_clear_bss_loop>
      9a:	0e 94 a7 08 	call	0x114e	; 0x114e <main>
      9e:	0c 94 3f 0f 	jmp	0x1e7e	; 0x1e7e <_exit>

000000a2 <__bad_interrupt>:
      a2:	0c 94 00 00 	jmp	0	; 0x0 <__vectors>

000000a6 <Read_Response>:
	uint16_t len = 0;
	_delay_ms(100);
	while(ESPXX_DataAvailable() > 0)
	_buffer[len++] = ESPXX_DataRead();
	return len;
}
      a6:	2f 92       	push	r2
      a8:	3f 92       	push	r3
      aa:	4f 92       	push	r4
      ac:	5f 92       	push	r5
      ae:	6f 92       	push	r6
      b0:	7f 92       	push	r7
      b2:	8f 92       	push	r8
      b4:	9f 92       	push	r9
      b6:	af 92       	push	r10
      b8:	bf 92       	push	r11
      ba:	cf 92       	push	r12
      bc:	df 92       	push	r13
      be:	ef 92       	push	r14
      c0:	ff 92       	push	r15
      c2:	0f 93       	push	r16
      c4:	1f 93       	push	r17
      c6:	cf 93       	push	r28
      c8:	df 93       	push	r29
      ca:	00 d0       	rcall	.+0      	; 0xcc <Read_Response+0x26>
      cc:	00 d0       	rcall	.+0      	; 0xce <Read_Response+0x28>
      ce:	cd b7       	in	r28, 0x3d	; 61
      d0:	de b7       	in	r29, 0x3e	; 62
      d2:	9a 83       	std	Y+2, r25	; 0x02
      d4:	89 83       	std	Y+1, r24	; 0x01
      d6:	8d b7       	in	r24, 0x3d	; 61
      d8:	9e b7       	in	r25, 0x3e	; 62
      da:	9c 83       	std	Y+4, r25	; 0x04
      dc:	8b 83       	std	Y+3, r24	; 0x03
      de:	e9 81       	ldd	r30, Y+1	; 0x01
      e0:	fa 81       	ldd	r31, Y+2	; 0x02
      e2:	01 90       	ld	r0, Z+
      e4:	00 20       	and	r0, r0
      e6:	e9 f7       	brne	.-6      	; 0xe2 <Read_Response+0x3c>
      e8:	31 97       	sbiw	r30, 0x01	; 1
      ea:	4f 01       	movw	r8, r30
      ec:	89 81       	ldd	r24, Y+1	; 0x01
      ee:	9a 81       	ldd	r25, Y+2	; 0x02
      f0:	88 1a       	sub	r8, r24
      f2:	99 0a       	sbc	r9, r25
      f4:	99 24       	eor	r9, r9
      f6:	14 01       	movw	r2, r8
      f8:	91 e0       	ldi	r25, 0x01	; 1
      fa:	29 1a       	sub	r2, r25
      fc:	31 08       	sbc	r3, r1
      fe:	8d b7       	in	r24, 0x3d	; 61
     100:	9e b7       	in	r25, 0x3e	; 62
     102:	88 19       	sub	r24, r8
     104:	99 09       	sbc	r25, r9
     106:	0f b6       	in	r0, 0x3f	; 63
     108:	f8 94       	cli
     10a:	9e bf       	out	0x3e, r25	; 62
     10c:	0f be       	out	0x3f, r0	; 63
     10e:	8d bf       	out	0x3d, r24	; 61
     110:	0d b7       	in	r16, 0x3d	; 61
     112:	1e b7       	in	r17, 0x3e	; 62
     114:	0f 5f       	subi	r16, 0xFF	; 255
     116:	1f 4f       	sbci	r17, 0xFF	; 255
     118:	41 2c       	mov	r4, r1
     11a:	51 2c       	mov	r5, r1
     11c:	32 01       	movw	r6, r4
     11e:	80 91 b4 06 	lds	r24, 0x06B4	; 0x8006b4 <__data_end>
     122:	90 91 b5 06 	lds	r25, 0x06B5	; 0x8006b5 <__data_end+0x1>
     126:	a0 91 b6 06 	lds	r26, 0x06B6	; 0x8006b6 <__data_end+0x2>
     12a:	b0 91 b7 06 	lds	r27, 0x06B7	; 0x8006b7 <__data_end+0x3>
     12e:	80 5f       	subi	r24, 0xF0	; 240
     130:	98 4d       	sbci	r25, 0xD8	; 216
     132:	af 4f       	sbci	r26, 0xFF	; 255
     134:	bf 4f       	sbci	r27, 0xFF	; 255
     136:	48 16       	cp	r4, r24
     138:	59 06       	cpc	r5, r25
     13a:	6a 06       	cpc	r6, r26
     13c:	7b 06       	cpc	r7, r27
     13e:	60 f0       	brcs	.+24     	; 0x158 <Read_Response+0xb2>
     140:	10 92 b4 06 	sts	0x06B4, r1	; 0x8006b4 <__data_end>
     144:	10 92 b5 06 	sts	0x06B5, r1	; 0x8006b5 <__data_end+0x1>
     148:	10 92 b6 06 	sts	0x06B6, r1	; 0x8006b6 <__data_end+0x2>
     14c:	10 92 b7 06 	sts	0x06B7, r1	; 0x8006b7 <__data_end+0x3>
     150:	82 e0       	ldi	r24, 0x02	; 2
     152:	80 93 5d 07 	sts	0x075D, r24	; 0x80075d <Response_Status>
     156:	71 c0       	rjmp	.+226    	; 0x23a <Read_Response+0x194>
     158:	80 91 5d 07 	lds	r24, 0x075D	; 0x80075d <Response_Status>
     15c:	84 30       	cpi	r24, 0x04	; 4
     15e:	11 f4       	brne	.+4      	; 0x164 <Read_Response+0xbe>
     160:	10 92 5d 07 	sts	0x075D, r1	; 0x80075d <Response_Status>
     164:	ed eb       	ldi	r30, 0xBD	; 189
     166:	f6 e0       	ldi	r31, 0x06	; 6
     168:	01 90       	ld	r0, Z+
     16a:	00 20       	and	r0, r0
     16c:	e9 f7       	brne	.-6      	; 0x168 <Read_Response+0xc2>
     16e:	31 97       	sbiw	r30, 0x01	; 1
     170:	cf 01       	movw	r24, r30
     172:	8d 5b       	subi	r24, 0xBD	; 189
     174:	96 40       	sbci	r25, 0x06	; 6
     176:	6c 01       	movw	r12, r24
     178:	e1 2c       	mov	r14, r1
     17a:	f1 2c       	mov	r15, r1
     17c:	c1 14       	cp	r12, r1
     17e:	d1 04       	cpc	r13, r1
     180:	e1 04       	cpc	r14, r1
     182:	f1 04       	cpc	r15, r1
     184:	09 f4       	brne	.+2      	; 0x188 <Read_Response+0xe2>
     186:	4d c0       	rjmp	.+154    	; 0x222 <Read_Response+0x17c>
     188:	8f e9       	ldi	r24, 0x9F	; 159
     18a:	9f e0       	ldi	r25, 0x0F	; 15
     18c:	01 97       	sbiw	r24, 0x01	; 1
     18e:	f1 f7       	brne	.-4      	; 0x18c <Read_Response+0xe6>
     190:	00 c0       	rjmp	.+0      	; 0x192 <Read_Response+0xec>
     192:	00 00       	nop
     194:	9f ef       	ldi	r25, 0xFF	; 255
     196:	49 1a       	sub	r4, r25
     198:	59 0a       	sbc	r5, r25
     19a:	69 0a       	sbc	r6, r25
     19c:	79 0a       	sbc	r7, r25
     19e:	ed eb       	ldi	r30, 0xBD	; 189
     1a0:	f6 e0       	ldi	r31, 0x06	; 6
     1a2:	01 90       	ld	r0, Z+
     1a4:	00 20       	and	r0, r0
     1a6:	e9 f7       	brne	.-6      	; 0x1a2 <Read_Response+0xfc>
     1a8:	31 97       	sbiw	r30, 0x01	; 1
     1aa:	cf 01       	movw	r24, r30
     1ac:	8d 5b       	subi	r24, 0xBD	; 189
     1ae:	96 40       	sbci	r25, 0x06	; 6
     1b0:	a0 e0       	ldi	r26, 0x00	; 0
     1b2:	b0 e0       	ldi	r27, 0x00	; 0
     1b4:	c8 16       	cp	r12, r24
     1b6:	d9 06       	cpc	r13, r25
     1b8:	ea 06       	cpc	r14, r26
     1ba:	fb 06       	cpc	r15, r27
     1bc:	91 f5       	brne	.+100    	; 0x222 <Read_Response+0x17c>
     1be:	27 c0       	rjmp	.+78     	; 0x20e <Read_Response+0x168>
     1c0:	a1 01       	movw	r20, r2
     1c2:	b8 01       	movw	r22, r16
     1c4:	6f 5f       	subi	r22, 0xFF	; 255
     1c6:	7f 4f       	sbci	r23, 0xFF	; 255
     1c8:	c8 01       	movw	r24, r16
     1ca:	0e 94 e6 0b 	call	0x17cc	; 0x17cc <memmove>
     1ce:	f5 01       	movw	r30, r10
     1d0:	e3 54       	subi	r30, 0x43	; 67
     1d2:	f9 4f       	sbci	r31, 0xF9	; 249
     1d4:	80 81       	ld	r24, Z
     1d6:	f8 01       	movw	r30, r16
     1d8:	e2 0d       	add	r30, r2
     1da:	f3 1d       	adc	r31, r3
     1dc:	80 83       	st	Z, r24
     1de:	a4 01       	movw	r20, r8
     1e0:	69 81       	ldd	r22, Y+1	; 0x01
     1e2:	7a 81       	ldd	r23, Y+2	; 0x02
     1e4:	c8 01       	movw	r24, r16
     1e6:	0e 94 1e 0c 	call	0x183c	; 0x183c <strncmp>
     1ea:	89 2b       	or	r24, r25
     1ec:	61 f4       	brne	.+24     	; 0x206 <Read_Response+0x160>
     1ee:	10 92 b4 06 	sts	0x06B4, r1	; 0x8006b4 <__data_end>
     1f2:	10 92 b5 06 	sts	0x06B5, r1	; 0x8006b5 <__data_end+0x1>
     1f6:	10 92 b6 06 	sts	0x06B6, r1	; 0x8006b6 <__data_end+0x2>
     1fa:	10 92 b7 06 	sts	0x06B7, r1	; 0x8006b7 <__data_end+0x3>
     1fe:	81 e0       	ldi	r24, 0x01	; 1
     200:	80 93 5d 07 	sts	0x075D, r24	; 0x80075d <Response_Status>
     204:	1a c0       	rjmp	.+52     	; 0x23a <Read_Response+0x194>
     206:	8f ef       	ldi	r24, 0xFF	; 255
     208:	a8 1a       	sub	r10, r24
     20a:	b8 0a       	sbc	r11, r24
     20c:	02 c0       	rjmp	.+4      	; 0x212 <Read_Response+0x16c>
     20e:	a1 2c       	mov	r10, r1
     210:	b1 2c       	mov	r11, r1
     212:	c5 01       	movw	r24, r10
     214:	a0 e0       	ldi	r26, 0x00	; 0
     216:	b0 e0       	ldi	r27, 0x00	; 0
     218:	8c 15       	cp	r24, r12
     21a:	9d 05       	cpc	r25, r13
     21c:	ae 05       	cpc	r26, r14
     21e:	bf 05       	cpc	r27, r15
     220:	78 f2       	brcs	.-98     	; 0x1c0 <Read_Response+0x11a>
     222:	8f e9       	ldi	r24, 0x9F	; 159
     224:	9f e0       	ldi	r25, 0x0F	; 15
     226:	01 97       	sbiw	r24, 0x01	; 1
     228:	f1 f7       	brne	.-4      	; 0x226 <Read_Response+0x180>
     22a:	00 c0       	rjmp	.+0      	; 0x22c <Read_Response+0x186>
     22c:	00 00       	nop
     22e:	9f ef       	ldi	r25, 0xFF	; 255
     230:	49 1a       	sub	r4, r25
     232:	59 0a       	sbc	r5, r25
     234:	69 0a       	sbc	r6, r25
     236:	79 0a       	sbc	r7, r25
     238:	72 cf       	rjmp	.-284    	; 0x11e <Read_Response+0x78>
     23a:	8b 81       	ldd	r24, Y+3	; 0x03
     23c:	9c 81       	ldd	r25, Y+4	; 0x04
     23e:	0f b6       	in	r0, 0x3f	; 63
     240:	f8 94       	cli
     242:	9e bf       	out	0x3e, r25	; 62
     244:	0f be       	out	0x3f, r0	; 63
     246:	8d bf       	out	0x3d, r24	; 61
     248:	0f 90       	pop	r0
     24a:	0f 90       	pop	r0
     24c:	0f 90       	pop	r0
     24e:	0f 90       	pop	r0
     250:	df 91       	pop	r29
     252:	cf 91       	pop	r28
     254:	1f 91       	pop	r17
     256:	0f 91       	pop	r16
     258:	ff 90       	pop	r15
     25a:	ef 90       	pop	r14
     25c:	df 90       	pop	r13
     25e:	cf 90       	pop	r12
     260:	bf 90       	pop	r11
     262:	af 90       	pop	r10
     264:	9f 90       	pop	r9
     266:	8f 90       	pop	r8
     268:	7f 90       	pop	r7
     26a:	6f 90       	pop	r6
     26c:	5f 90       	pop	r5
     26e:	4f 90       	pop	r4
     270:	3f 90       	pop	r3
     272:	2f 90       	pop	r2
     274:	08 95       	ret

00000276 <ESPXX_Clear>:
     276:	80 ea       	ldi	r24, 0xA0	; 160
     278:	ed eb       	ldi	r30, 0xBD	; 189
     27a:	f6 e0       	ldi	r31, 0x06	; 6
     27c:	df 01       	movw	r26, r30
     27e:	1d 92       	st	X+, r1
     280:	8a 95       	dec	r24
     282:	e9 f7       	brne	.-6      	; 0x27e <ESPXX_Clear+0x8>
     284:	10 92 bb 06 	sts	0x06BB, r1	; 0x8006bb <Counter+0x1>
     288:	10 92 ba 06 	sts	0x06BA, r1	; 0x8006ba <Counter>
     28c:	10 92 b9 06 	sts	0x06B9, r1	; 0x8006b9 <pointer+0x1>
     290:	10 92 b8 06 	sts	0x06B8, r1	; 0x8006b8 <pointer>
     294:	08 95       	ret

00000296 <Start_Read_Response>:
     296:	cf 93       	push	r28
     298:	df 93       	push	r29
     29a:	ec 01       	movw	r28, r24
     29c:	84 e0       	ldi	r24, 0x04	; 4
     29e:	80 93 5d 07 	sts	0x075D, r24	; 0x80075d <Response_Status>
     2a2:	ce 01       	movw	r24, r28
     2a4:	0e 94 53 00 	call	0xa6	; 0xa6 <Read_Response>
     2a8:	80 91 5d 07 	lds	r24, 0x075D	; 0x80075d <Response_Status>
     2ac:	88 23       	and	r24, r24
     2ae:	c9 f3       	breq	.-14     	; 0x2a2 <Start_Read_Response+0xc>
     2b0:	df 91       	pop	r29
     2b2:	cf 91       	pop	r28
     2b4:	08 95       	ret

000002b6 <WaitForExpectedResponse>:
     2b6:	0e 94 4b 01 	call	0x296	; 0x296 <Start_Read_Response>
     2ba:	80 91 5d 07 	lds	r24, 0x075D	; 0x80075d <Response_Status>
     2be:	82 30       	cpi	r24, 0x02	; 2
     2c0:	11 f0       	breq	.+4      	; 0x2c6 <WaitForExpectedResponse+0x10>
     2c2:	81 e0       	ldi	r24, 0x01	; 1
     2c4:	08 95       	ret
     2c6:	80 e0       	ldi	r24, 0x00	; 0
     2c8:	08 95       	ret

000002ca <SendATandExpectResponse>:
     2ca:	0f 93       	push	r16
     2cc:	1f 93       	push	r17
     2ce:	cf 93       	push	r28
     2d0:	df 93       	push	r29
     2d2:	8c 01       	movw	r16, r24
     2d4:	eb 01       	movw	r28, r22
     2d6:	0e 94 3b 01 	call	0x276	; 0x276 <ESPXX_Clear>
     2da:	c8 01       	movw	r24, r16
     2dc:	0e 94 2a 08 	call	0x1054	; 0x1054 <USART_putstring>
     2e0:	80 e8       	ldi	r24, 0x80	; 128
     2e2:	95 e0       	ldi	r25, 0x05	; 5
     2e4:	0e 94 2a 08 	call	0x1054	; 0x1054 <USART_putstring>
     2e8:	ce 01       	movw	r24, r28
     2ea:	0e 94 5b 01 	call	0x2b6	; 0x2b6 <WaitForExpectedResponse>
     2ee:	df 91       	pop	r29
     2f0:	cf 91       	pop	r28
     2f2:	1f 91       	pop	r17
     2f4:	0f 91       	pop	r16
     2f6:	08 95       	ret

000002f8 <ESPXX_ConnectionMode>:
     2f8:	0f 93       	push	r16
     2fa:	1f 93       	push	r17
     2fc:	cf 93       	push	r28
     2fe:	df 93       	push	r29
     300:	cd b7       	in	r28, 0x3d	; 61
     302:	de b7       	in	r29, 0x3e	; 62
     304:	64 97       	sbiw	r28, 0x14	; 20
     306:	0f b6       	in	r0, 0x3f	; 63
     308:	f8 94       	cli
     30a:	de bf       	out	0x3e, r29	; 62
     30c:	0f be       	out	0x3f, r0	; 63
     30e:	cd bf       	out	0x3d, r28	; 61
     310:	8e 01       	movw	r16, r28
     312:	0f 5f       	subi	r16, 0xFF	; 255
     314:	1f 4f       	sbci	r17, 0xFF	; 255
     316:	94 e1       	ldi	r25, 0x14	; 20
     318:	f8 01       	movw	r30, r16
     31a:	11 92       	st	Z+, r1
     31c:	9a 95       	dec	r25
     31e:	e9 f7       	brne	.-6      	; 0x31a <ESPXX_ConnectionMode+0x22>
     320:	1f 92       	push	r1
     322:	8f 93       	push	r24
     324:	87 ed       	ldi	r24, 0xD7	; 215
     326:	93 e0       	ldi	r25, 0x03	; 3
     328:	9f 93       	push	r25
     32a:	8f 93       	push	r24
     32c:	1f 93       	push	r17
     32e:	0f 93       	push	r16
     330:	0e 94 55 0c 	call	0x18aa	; 0x18aa <sprintf>
     334:	1c 8a       	std	Y+20, r1	; 0x14
     336:	62 ec       	ldi	r22, 0xC2	; 194
     338:	73 e0       	ldi	r23, 0x03	; 3
     33a:	c8 01       	movw	r24, r16
     33c:	0e 94 65 01 	call	0x2ca	; 0x2ca <SendATandExpectResponse>
     340:	0f 90       	pop	r0
     342:	0f 90       	pop	r0
     344:	0f 90       	pop	r0
     346:	0f 90       	pop	r0
     348:	0f 90       	pop	r0
     34a:	0f 90       	pop	r0
     34c:	64 96       	adiw	r28, 0x14	; 20
     34e:	0f b6       	in	r0, 0x3f	; 63
     350:	f8 94       	cli
     352:	de bf       	out	0x3e, r29	; 62
     354:	0f be       	out	0x3f, r0	; 63
     356:	cd bf       	out	0x3d, r28	; 61
     358:	df 91       	pop	r29
     35a:	cf 91       	pop	r28
     35c:	1f 91       	pop	r17
     35e:	0f 91       	pop	r16
     360:	08 95       	ret

00000362 <ESPXX_Begin>:
     362:	cf 93       	push	r28
     364:	c0 e0       	ldi	r28, 0x00	; 0
     366:	11 c0       	rjmp	.+34     	; 0x38a <ESPXX_Begin+0x28>
     368:	62 ec       	ldi	r22, 0xC2	; 194
     36a:	73 e0       	ldi	r23, 0x03	; 3
     36c:	84 ee       	ldi	r24, 0xE4	; 228
     36e:	93 e0       	ldi	r25, 0x03	; 3
     370:	0e 94 65 01 	call	0x2ca	; 0x2ca <SendATandExpectResponse>
     374:	81 11       	cpse	r24, r1
     376:	0b c0       	rjmp	.+22     	; 0x38e <ESPXX_Begin+0x2c>
     378:	62 ec       	ldi	r22, 0xC2	; 194
     37a:	73 e0       	ldi	r23, 0x03	; 3
     37c:	89 ee       	ldi	r24, 0xE9	; 233
     37e:	93 e0       	ldi	r25, 0x03	; 3
     380:	0e 94 65 01 	call	0x2ca	; 0x2ca <SendATandExpectResponse>
     384:	81 11       	cpse	r24, r1
     386:	03 c0       	rjmp	.+6      	; 0x38e <ESPXX_Begin+0x2c>
     388:	cf 5f       	subi	r28, 0xFF	; 255
     38a:	cc 23       	and	r28, r28
     38c:	69 f3       	breq	.-38     	; 0x368 <ESPXX_Begin+0x6>
     38e:	81 e0       	ldi	r24, 0x01	; 1
     390:	cf 91       	pop	r28
     392:	08 95       	ret

00000394 <ESPXX_WIFIMode>:
     394:	0f 93       	push	r16
     396:	1f 93       	push	r17
     398:	cf 93       	push	r28
     39a:	df 93       	push	r29
     39c:	cd b7       	in	r28, 0x3d	; 61
     39e:	de b7       	in	r29, 0x3e	; 62
     3a0:	64 97       	sbiw	r28, 0x14	; 20
     3a2:	0f b6       	in	r0, 0x3f	; 63
     3a4:	f8 94       	cli
     3a6:	de bf       	out	0x3e, r29	; 62
     3a8:	0f be       	out	0x3f, r0	; 63
     3aa:	cd bf       	out	0x3d, r28	; 61
     3ac:	8e 01       	movw	r16, r28
     3ae:	0f 5f       	subi	r16, 0xFF	; 255
     3b0:	1f 4f       	sbci	r17, 0xFF	; 255
     3b2:	94 e1       	ldi	r25, 0x14	; 20
     3b4:	f8 01       	movw	r30, r16
     3b6:	11 92       	st	Z+, r1
     3b8:	9a 95       	dec	r25
     3ba:	e9 f7       	brne	.-6      	; 0x3b6 <ESPXX_WIFIMode+0x22>
     3bc:	1f 92       	push	r1
     3be:	8f 93       	push	r24
     3c0:	8a ef       	ldi	r24, 0xFA	; 250
     3c2:	93 e0       	ldi	r25, 0x03	; 3
     3c4:	9f 93       	push	r25
     3c6:	8f 93       	push	r24
     3c8:	1f 93       	push	r17
     3ca:	0f 93       	push	r16
     3cc:	0e 94 55 0c 	call	0x18aa	; 0x18aa <sprintf>
     3d0:	1c 8a       	std	Y+20, r1	; 0x14
     3d2:	62 ec       	ldi	r22, 0xC2	; 194
     3d4:	73 e0       	ldi	r23, 0x03	; 3
     3d6:	c8 01       	movw	r24, r16
     3d8:	0e 94 65 01 	call	0x2ca	; 0x2ca <SendATandExpectResponse>
     3dc:	0f 90       	pop	r0
     3de:	0f 90       	pop	r0
     3e0:	0f 90       	pop	r0
     3e2:	0f 90       	pop	r0
     3e4:	0f 90       	pop	r0
     3e6:	0f 90       	pop	r0
     3e8:	64 96       	adiw	r28, 0x14	; 20
     3ea:	0f b6       	in	r0, 0x3f	; 63
     3ec:	f8 94       	cli
     3ee:	de bf       	out	0x3e, r29	; 62
     3f0:	0f be       	out	0x3f, r0	; 63
     3f2:	cd bf       	out	0x3d, r28	; 61
     3f4:	df 91       	pop	r29
     3f6:	cf 91       	pop	r28
     3f8:	1f 91       	pop	r17
     3fa:	0f 91       	pop	r16
     3fc:	08 95       	ret

000003fe <ESPXX_JoinAccessPoint>:
     3fe:	0f 93       	push	r16
     400:	1f 93       	push	r17
     402:	cf 93       	push	r28
     404:	df 93       	push	r29
     406:	cd b7       	in	r28, 0x3d	; 61
     408:	de b7       	in	r29, 0x3e	; 62
     40a:	ec 97       	sbiw	r28, 0x3c	; 60
     40c:	0f b6       	in	r0, 0x3f	; 63
     40e:	f8 94       	cli
     410:	de bf       	out	0x3e, r29	; 62
     412:	0f be       	out	0x3f, r0	; 63
     414:	cd bf       	out	0x3d, r28	; 61
     416:	8e 01       	movw	r16, r28
     418:	0f 5f       	subi	r16, 0xFF	; 255
     41a:	1f 4f       	sbci	r17, 0xFF	; 255
     41c:	2c e3       	ldi	r18, 0x3C	; 60
     41e:	f8 01       	movw	r30, r16
     420:	11 92       	st	Z+, r1
     422:	2a 95       	dec	r18
     424:	e9 f7       	brne	.-6      	; 0x420 <__EEPROM_REGION_LENGTH__+0x20>
     426:	7f 93       	push	r23
     428:	6f 93       	push	r22
     42a:	9f 93       	push	r25
     42c:	8f 93       	push	r24
     42e:	87 e0       	ldi	r24, 0x07	; 7
     430:	94 e0       	ldi	r25, 0x04	; 4
     432:	9f 93       	push	r25
     434:	8f 93       	push	r24
     436:	1f 93       	push	r17
     438:	0f 93       	push	r16
     43a:	0e 94 55 0c 	call	0x18aa	; 0x18aa <sprintf>
     43e:	1c ae       	std	Y+60, r1	; 0x3c
     440:	6a e1       	ldi	r22, 0x1A	; 26
     442:	74 e0       	ldi	r23, 0x04	; 4
     444:	c8 01       	movw	r24, r16
     446:	0e 94 65 01 	call	0x2ca	; 0x2ca <SendATandExpectResponse>
     44a:	0f b6       	in	r0, 0x3f	; 63
     44c:	f8 94       	cli
     44e:	de bf       	out	0x3e, r29	; 62
     450:	0f be       	out	0x3f, r0	; 63
     452:	cd bf       	out	0x3d, r28	; 61
     454:	81 11       	cpse	r24, r1
     456:	22 c0       	rjmp	.+68     	; 0x49c <__EEPROM_REGION_LENGTH__+0x9c>
     458:	6d e2       	ldi	r22, 0x2D	; 45
     45a:	74 e0       	ldi	r23, 0x04	; 4
     45c:	8d eb       	ldi	r24, 0xBD	; 189
     45e:	96 e0       	ldi	r25, 0x06	; 6
     460:	0e 94 3b 0c 	call	0x1876	; 0x1876 <strstr>
     464:	89 2b       	or	r24, r25
     466:	e1 f4       	brne	.+56     	; 0x4a0 <__EEPROM_REGION_LENGTH__+0xa0>
     468:	66 e3       	ldi	r22, 0x36	; 54
     46a:	74 e0       	ldi	r23, 0x04	; 4
     46c:	8d eb       	ldi	r24, 0xBD	; 189
     46e:	96 e0       	ldi	r25, 0x06	; 6
     470:	0e 94 3b 0c 	call	0x1876	; 0x1876 <strstr>
     474:	89 2b       	or	r24, r25
     476:	b1 f4       	brne	.+44     	; 0x4a4 <__EEPROM_REGION_LENGTH__+0xa4>
     478:	6f e3       	ldi	r22, 0x3F	; 63
     47a:	74 e0       	ldi	r23, 0x04	; 4
     47c:	8d eb       	ldi	r24, 0xBD	; 189
     47e:	96 e0       	ldi	r25, 0x06	; 6
     480:	0e 94 3b 0c 	call	0x1876	; 0x1876 <strstr>
     484:	89 2b       	or	r24, r25
     486:	81 f4       	brne	.+32     	; 0x4a8 <__EEPROM_REGION_LENGTH__+0xa8>
     488:	68 e4       	ldi	r22, 0x48	; 72
     48a:	74 e0       	ldi	r23, 0x04	; 4
     48c:	8d eb       	ldi	r24, 0xBD	; 189
     48e:	96 e0       	ldi	r25, 0x06	; 6
     490:	0e 94 3b 0c 	call	0x1876	; 0x1876 <strstr>
     494:	89 2b       	or	r24, r25
     496:	51 f0       	breq	.+20     	; 0x4ac <__EEPROM_REGION_LENGTH__+0xac>
     498:	84 e0       	ldi	r24, 0x04	; 4
     49a:	09 c0       	rjmp	.+18     	; 0x4ae <__EEPROM_REGION_LENGTH__+0xae>
     49c:	80 e0       	ldi	r24, 0x00	; 0
     49e:	07 c0       	rjmp	.+14     	; 0x4ae <__EEPROM_REGION_LENGTH__+0xae>
     4a0:	81 e0       	ldi	r24, 0x01	; 1
     4a2:	05 c0       	rjmp	.+10     	; 0x4ae <__EEPROM_REGION_LENGTH__+0xae>
     4a4:	82 e0       	ldi	r24, 0x02	; 2
     4a6:	03 c0       	rjmp	.+6      	; 0x4ae <__EEPROM_REGION_LENGTH__+0xae>
     4a8:	83 e0       	ldi	r24, 0x03	; 3
     4aa:	01 c0       	rjmp	.+2      	; 0x4ae <__EEPROM_REGION_LENGTH__+0xae>
     4ac:	85 e0       	ldi	r24, 0x05	; 5
     4ae:	ec 96       	adiw	r28, 0x3c	; 60
     4b0:	0f b6       	in	r0, 0x3f	; 63
     4b2:	f8 94       	cli
     4b4:	de bf       	out	0x3e, r29	; 62
     4b6:	0f be       	out	0x3f, r0	; 63
     4b8:	cd bf       	out	0x3d, r28	; 61
     4ba:	df 91       	pop	r29
     4bc:	cf 91       	pop	r28
     4be:	1f 91       	pop	r17
     4c0:	0f 91       	pop	r16
     4c2:	08 95       	ret

000004c4 <ESPXX_Start>:
     4c4:	0f 93       	push	r16
     4c6:	1f 93       	push	r17
     4c8:	cf 93       	push	r28
     4ca:	df 93       	push	r29
     4cc:	cd b7       	in	r28, 0x3d	; 61
     4ce:	de b7       	in	r29, 0x3e	; 62
     4d0:	ec 97       	sbiw	r28, 0x3c	; 60
     4d2:	0f b6       	in	r0, 0x3f	; 63
     4d4:	f8 94       	cli
     4d6:	de bf       	out	0x3e, r29	; 62
     4d8:	0f be       	out	0x3f, r0	; 63
     4da:	cd bf       	out	0x3d, r28	; 61
     4dc:	8e 01       	movw	r16, r28
     4de:	0f 5f       	subi	r16, 0xFF	; 255
     4e0:	1f 4f       	sbci	r17, 0xFF	; 255
     4e2:	8c e3       	ldi	r24, 0x3C	; 60
     4e4:	f8 01       	movw	r30, r16
     4e6:	11 92       	st	Z+, r1
     4e8:	8a 95       	dec	r24
     4ea:	e9 f7       	brne	.-6      	; 0x4e6 <ESPXX_Start+0x22>
     4ec:	5f 93       	push	r21
     4ee:	4f 93       	push	r20
     4f0:	7f 93       	push	r23
     4f2:	6f 93       	push	r22
     4f4:	82 e8       	ldi	r24, 0x82	; 130
     4f6:	94 e0       	ldi	r25, 0x04	; 4
     4f8:	9f 93       	push	r25
     4fa:	8f 93       	push	r24
     4fc:	1f 93       	push	r17
     4fe:	0f 93       	push	r16
     500:	0e 94 55 0c 	call	0x18aa	; 0x18aa <sprintf>
     504:	6c e9       	ldi	r22, 0x9C	; 156
     506:	74 e0       	ldi	r23, 0x04	; 4
     508:	c8 01       	movw	r24, r16
     50a:	0e 94 65 01 	call	0x2ca	; 0x2ca <SendATandExpectResponse>
     50e:	0f b6       	in	r0, 0x3f	; 63
     510:	f8 94       	cli
     512:	de bf       	out	0x3e, r29	; 62
     514:	0f be       	out	0x3f, r0	; 63
     516:	cd bf       	out	0x3d, r28	; 61
     518:	81 11       	cpse	r24, r1
     51a:	05 c0       	rjmp	.+10     	; 0x526 <ESPXX_Start+0x62>
     51c:	80 91 5d 07 	lds	r24, 0x075D	; 0x80075d <Response_Status>
     520:	82 30       	cpi	r24, 0x02	; 2
     522:	19 f4       	brne	.+6      	; 0x52a <ESPXX_Start+0x66>
     524:	03 c0       	rjmp	.+6      	; 0x52c <ESPXX_Start+0x68>
     526:	81 e0       	ldi	r24, 0x01	; 1
     528:	01 c0       	rjmp	.+2      	; 0x52c <ESPXX_Start+0x68>
     52a:	85 e0       	ldi	r24, 0x05	; 5
     52c:	ec 96       	adiw	r28, 0x3c	; 60
     52e:	0f b6       	in	r0, 0x3f	; 63
     530:	f8 94       	cli
     532:	de bf       	out	0x3e, r29	; 62
     534:	0f be       	out	0x3f, r0	; 63
     536:	cd bf       	out	0x3d, r28	; 61
     538:	df 91       	pop	r29
     53a:	cf 91       	pop	r28
     53c:	1f 91       	pop	r17
     53e:	0f 91       	pop	r16
     540:	08 95       	ret

00000542 <ESPXX_Send>:
     542:	ef 92       	push	r14
     544:	ff 92       	push	r15
     546:	0f 93       	push	r16
     548:	1f 93       	push	r17
     54a:	cf 93       	push	r28
     54c:	df 93       	push	r29
     54e:	cd b7       	in	r28, 0x3d	; 61
     550:	de b7       	in	r29, 0x3e	; 62
     552:	64 97       	sbiw	r28, 0x14	; 20
     554:	0f b6       	in	r0, 0x3f	; 63
     556:	f8 94       	cli
     558:	de bf       	out	0x3e, r29	; 62
     55a:	0f be       	out	0x3f, r0	; 63
     55c:	cd bf       	out	0x3d, r28	; 61
     55e:	8c 01       	movw	r16, r24
     560:	ce 01       	movw	r24, r28
     562:	01 96       	adiw	r24, 0x01	; 1
     564:	7c 01       	movw	r14, r24
     566:	84 e1       	ldi	r24, 0x14	; 20
     568:	f7 01       	movw	r30, r14
     56a:	11 92       	st	Z+, r1
     56c:	8a 95       	dec	r24
     56e:	e9 f7       	brne	.-6      	; 0x56a <ESPXX_Send+0x28>
     570:	f8 01       	movw	r30, r16
     572:	01 90       	ld	r0, Z+
     574:	00 20       	and	r0, r0
     576:	e9 f7       	brne	.-6      	; 0x572 <ESPXX_Send+0x30>
     578:	31 97       	sbiw	r30, 0x01	; 1
     57a:	e0 1b       	sub	r30, r16
     57c:	f1 0b       	sbc	r31, r17
     57e:	32 96       	adiw	r30, 0x02	; 2
     580:	ff 93       	push	r31
     582:	ef 93       	push	r30
     584:	86 ea       	ldi	r24, 0xA6	; 166
     586:	94 e0       	ldi	r25, 0x04	; 4
     588:	9f 93       	push	r25
     58a:	8f 93       	push	r24
     58c:	ff 92       	push	r15
     58e:	ef 92       	push	r14
     590:	0e 94 55 0c 	call	0x18aa	; 0x18aa <sprintf>
     594:	1c 8a       	std	Y+20, r1	; 0x14
     596:	64 eb       	ldi	r22, 0xB4	; 180
     598:	74 e0       	ldi	r23, 0x04	; 4
     59a:	c7 01       	movw	r24, r14
     59c:	0e 94 65 01 	call	0x2ca	; 0x2ca <SendATandExpectResponse>
     5a0:	6c eb       	ldi	r22, 0xBC	; 188
     5a2:	74 e0       	ldi	r23, 0x04	; 4
     5a4:	c8 01       	movw	r24, r16
     5a6:	0e 94 65 01 	call	0x2ca	; 0x2ca <SendATandExpectResponse>
     5aa:	0f 90       	pop	r0
     5ac:	0f 90       	pop	r0
     5ae:	0f 90       	pop	r0
     5b0:	0f 90       	pop	r0
     5b2:	0f 90       	pop	r0
     5b4:	0f 90       	pop	r0
     5b6:	81 11       	cpse	r24, r1
     5b8:	05 c0       	rjmp	.+10     	; 0x5c4 <ESPXX_Send+0x82>
     5ba:	80 91 5d 07 	lds	r24, 0x075D	; 0x80075d <Response_Status>
     5be:	82 30       	cpi	r24, 0x02	; 2
     5c0:	19 f4       	brne	.+6      	; 0x5c8 <ESPXX_Send+0x86>
     5c2:	03 c0       	rjmp	.+6      	; 0x5ca <ESPXX_Send+0x88>
     5c4:	81 e0       	ldi	r24, 0x01	; 1
     5c6:	01 c0       	rjmp	.+2      	; 0x5ca <ESPXX_Send+0x88>
     5c8:	85 e0       	ldi	r24, 0x05	; 5
     5ca:	64 96       	adiw	r28, 0x14	; 20
     5cc:	0f b6       	in	r0, 0x3f	; 63
     5ce:	f8 94       	cli
     5d0:	de bf       	out	0x3e, r29	; 62
     5d2:	0f be       	out	0x3f, r0	; 63
     5d4:	cd bf       	out	0x3d, r28	; 61
     5d6:	df 91       	pop	r29
     5d8:	cf 91       	pop	r28
     5da:	1f 91       	pop	r17
     5dc:	0f 91       	pop	r16
     5de:	ff 90       	pop	r15
     5e0:	ef 90       	pop	r14
     5e2:	08 95       	ret

000005e4 <__vector_18>:

ISR (USART_RX_vect)
{
     5e4:	1f 92       	push	r1
     5e6:	0f 92       	push	r0
     5e8:	0f b6       	in	r0, 0x3f	; 63
     5ea:	0f 92       	push	r0
     5ec:	11 24       	eor	r1, r1
     5ee:	2f 93       	push	r18
     5f0:	8f 93       	push	r24
     5f2:	9f 93       	push	r25
     5f4:	ef 93       	push	r30
     5f6:	ff 93       	push	r31
	uint8_t oldsrg = SREG;
     5f8:	2f b7       	in	r18, 0x3f	; 63
	cli();
     5fa:	f8 94       	cli
	RESPONSE_BUFFER[Counter] = UDR0;
     5fc:	e0 91 ba 06 	lds	r30, 0x06BA	; 0x8006ba <Counter>
     600:	f0 91 bb 06 	lds	r31, 0x06BB	; 0x8006bb <Counter+0x1>
     604:	80 91 c6 00 	lds	r24, 0x00C6	; 0x8000c6 <__TEXT_REGION_LENGTH__+0x7f80c6>
     608:	e3 54       	subi	r30, 0x43	; 67
     60a:	f9 4f       	sbci	r31, 0xF9	; 249
     60c:	80 83       	st	Z, r24
	Counter++;
     60e:	80 91 ba 06 	lds	r24, 0x06BA	; 0x8006ba <Counter>
     612:	90 91 bb 06 	lds	r25, 0x06BB	; 0x8006bb <Counter+0x1>
     616:	01 96       	adiw	r24, 0x01	; 1
     618:	90 93 bb 06 	sts	0x06BB, r25	; 0x8006bb <Counter+0x1>
     61c:	80 93 ba 06 	sts	0x06BA, r24	; 0x8006ba <Counter>
	if(Counter == DEFAULT_BUFFER_SIZE){
     620:	80 91 ba 06 	lds	r24, 0x06BA	; 0x8006ba <Counter>
     624:	90 91 bb 06 	lds	r25, 0x06BB	; 0x8006bb <Counter+0x1>
     628:	80 3a       	cpi	r24, 0xA0	; 160
     62a:	91 05       	cpc	r25, r1
     62c:	41 f4       	brne	.+16     	; 0x63e <__vector_18+0x5a>
		Counter = 0; pointer = 0;
     62e:	10 92 bb 06 	sts	0x06BB, r1	; 0x8006bb <Counter+0x1>
     632:	10 92 ba 06 	sts	0x06BA, r1	; 0x8006ba <Counter>
     636:	10 92 b9 06 	sts	0x06B9, r1	; 0x8006b9 <pointer+0x1>
     63a:	10 92 b8 06 	sts	0x06B8, r1	; 0x8006b8 <pointer>
	}
	SREG = oldsrg;
     63e:	2f bf       	out	0x3f, r18	; 63
}
     640:	ff 91       	pop	r31
     642:	ef 91       	pop	r30
     644:	9f 91       	pop	r25
     646:	8f 91       	pop	r24
     648:	2f 91       	pop	r18
     64a:	0f 90       	pop	r0
     64c:	0f be       	out	0x3f, r0	; 63
     64e:	0f 90       	pop	r0
     650:	1f 90       	pop	r1
     652:	18 95       	reti

00000654 <extract_data>:
char* extract_data(const char* packet) {
     654:	ef 92       	push	r14
     656:	ff 92       	push	r15
     658:	0f 93       	push	r16
     65a:	1f 93       	push	r17
     65c:	cf 93       	push	r28
     65e:	df 93       	push	r29
     660:	ec 01       	movw	r28, r24
	const char* start = strstr(packet, "data") + strlen("data") + 2;
     662:	68 ec       	ldi	r22, 0xC8	; 200
     664:	74 e0       	ldi	r23, 0x04	; 4
     666:	0e 94 3b 0c 	call	0x1876	; 0x1876 <strstr>
     66a:	06 96       	adiw	r24, 0x06	; 6
     66c:	7c 01       	movw	r14, r24
	const char* end = strstr(packet, "wts") -2 ;
     66e:	6d ec       	ldi	r22, 0xCD	; 205
     670:	74 e0       	ldi	r23, 0x04	; 4
     672:	ce 01       	movw	r24, r28
     674:	0e 94 3b 0c 	call	0x1876	; 0x1876 <strstr>
     678:	02 97       	sbiw	r24, 0x02	; 2
	
	int len = end - start;
     67a:	ec 01       	movw	r28, r24
     67c:	ce 19       	sub	r28, r14
     67e:	df 09       	sbc	r29, r15
	
	char* data = malloc(len + 1);
     680:	ce 01       	movw	r24, r28
     682:	01 96       	adiw	r24, 0x01	; 1
     684:	0e 94 bc 0a 	call	0x1578	; 0x1578 <malloc>
     688:	8c 01       	movw	r16, r24
	strncpy(data, start, len);
     68a:	ae 01       	movw	r20, r28
     68c:	b7 01       	movw	r22, r14
     68e:	0e 94 2c 0c 	call	0x1858	; 0x1858 <strncpy>
	data[len] = '\0';
     692:	c0 0f       	add	r28, r16
     694:	d1 1f       	adc	r29, r17
     696:	18 82       	st	Y, r1
	
	return data;
}
     698:	c8 01       	movw	r24, r16
     69a:	df 91       	pop	r29
     69c:	cf 91       	pop	r28
     69e:	1f 91       	pop	r17
     6a0:	0f 91       	pop	r16
     6a2:	ff 90       	pop	r15
     6a4:	ef 90       	pop	r14
     6a6:	08 95       	ret

000006a8 <Post_f>:
void Post_f(char * channel, char * resource, char * token, char * data) {
     6a8:	6f 92       	push	r6
     6aa:	7f 92       	push	r7
     6ac:	8f 92       	push	r8
     6ae:	9f 92       	push	r9
     6b0:	af 92       	push	r10
     6b2:	bf 92       	push	r11
     6b4:	cf 92       	push	r12
     6b6:	df 92       	push	r13
     6b8:	ef 92       	push	r14
     6ba:	ff 92       	push	r15
     6bc:	0f 93       	push	r16
     6be:	1f 93       	push	r17
     6c0:	cf 93       	push	r28
     6c2:	df 93       	push	r29
     6c4:	cd b7       	in	r28, 0x3d	; 61
     6c6:	de b7       	in	r29, 0x3e	; 62
     6c8:	c2 57       	subi	r28, 0x72	; 114
     6ca:	d1 40       	sbci	r29, 0x01	; 1
     6cc:	0f b6       	in	r0, 0x3f	; 63
     6ce:	f8 94       	cli
     6d0:	de bf       	out	0x3e, r29	; 62
     6d2:	0f be       	out	0x3f, r0	; 63
     6d4:	cd bf       	out	0x3d, r28	; 61
     6d6:	4c 01       	movw	r8, r24
     6d8:	5b 01       	movw	r10, r22
     6da:	3a 01       	movw	r6, r20
     6dc:	69 01       	movw	r12, r18
	ESPXX_Start(0, DOMAIN, PORT);
     6de:	41 ed       	ldi	r20, 0xD1	; 209
     6e0:	54 e0       	ldi	r21, 0x04	; 4
     6e2:	64 ed       	ldi	r22, 0xD4	; 212
     6e4:	74 e0       	ldi	r23, 0x04	; 4
     6e6:	80 e0       	ldi	r24, 0x00	; 0
     6e8:	0e 94 62 02 	call	0x4c4	; 0x4c4 <ESPXX_Start>
	char paquete[350]="POST /v1/data/write/";
     6ec:	85 e1       	ldi	r24, 0x15	; 21
     6ee:	e6 e0       	ldi	r30, 0x06	; 6
     6f0:	f1 e0       	ldi	r31, 0x01	; 1
     6f2:	8e 01       	movw	r16, r28
     6f4:	0f 5f       	subi	r16, 0xFF	; 255
     6f6:	1f 4f       	sbci	r17, 0xFF	; 255
     6f8:	d8 01       	movw	r26, r16
     6fa:	01 90       	ld	r0, Z+
     6fc:	0d 92       	st	X+, r0
     6fe:	8a 95       	dec	r24
     700:	e1 f7       	brne	.-8      	; 0x6fa <Post_f+0x52>
     702:	fe 01       	movw	r30, r28
     704:	76 96       	adiw	r30, 0x16	; 22
     706:	89 e4       	ldi	r24, 0x49	; 73
     708:	91 e0       	ldi	r25, 0x01	; 1
     70a:	df 01       	movw	r26, r30
     70c:	9c 01       	movw	r18, r24
     70e:	1d 92       	st	X+, r1
     710:	21 50       	subi	r18, 0x01	; 1
     712:	30 40       	sbci	r19, 0x00	; 0
     714:	e1 f7       	brne	.-8      	; 0x70e <Post_f+0x66>
	char longi[20]="";
     716:	7e 01       	movw	r14, r28
     718:	31 ea       	ldi	r19, 0xA1	; 161
     71a:	e3 1a       	sub	r14, r19
     71c:	3e ef       	ldi	r19, 0xFE	; 254
     71e:	f3 0a       	sbc	r15, r19
     720:	f7 01       	movw	r30, r14
     722:	11 92       	st	Z+, r1
     724:	11 92       	st	Z+, r1
     726:	82 e1       	ldi	r24, 0x12	; 18
     728:	df 01       	movw	r26, r30
     72a:	1d 92       	st	X+, r1
     72c:	8a 95       	dec	r24
     72e:	e9 f7       	brne	.-6      	; 0x72a <Post_f+0x82>
	strcat(paquete,channel);
     730:	b4 01       	movw	r22, r8
     732:	c8 01       	movw	r24, r16
     734:	0e 94 f8 0b 	call	0x17f0	; 0x17f0 <strcat>
	strcat(paquete,"/");
     738:	f8 01       	movw	r30, r16
     73a:	01 90       	ld	r0, Z+
     73c:	00 20       	and	r0, r0
     73e:	e9 f7       	brne	.-6      	; 0x73a <Post_f+0x92>
     740:	31 97       	sbiw	r30, 0x01	; 1
     742:	8f e2       	ldi	r24, 0x2F	; 47
     744:	90 e0       	ldi	r25, 0x00	; 0
     746:	91 83       	std	Z+1, r25	; 0x01
     748:	80 83       	st	Z, r24
	strcat(paquete,resource);
     74a:	b5 01       	movw	r22, r10
     74c:	c8 01       	movw	r24, r16
     74e:	0e 94 f8 0b 	call	0x17f0	; 0x17f0 <strcat>
	strcat(paquete," HTTP/1.1\r\nAccept: application/json\r\nContent-Type: application/json\r\nHost: api.beebotte.com\r\nX-Auth-Token: ");
     752:	d8 01       	movw	r26, r16
     754:	0d 90       	ld	r0, X+
     756:	00 20       	and	r0, r0
     758:	e9 f7       	brne	.-6      	; 0x754 <Post_f+0xac>
     75a:	11 97       	sbiw	r26, 0x01	; 1
     75c:	8c e6       	ldi	r24, 0x6C	; 108
     75e:	e2 e1       	ldi	r30, 0x12	; 18
     760:	f5 e0       	ldi	r31, 0x05	; 5
     762:	01 90       	ld	r0, Z+
     764:	0d 92       	st	X+, r0
     766:	8a 95       	dec	r24
     768:	e1 f7       	brne	.-8      	; 0x762 <Post_f+0xba>
	strcat(paquete,token);
     76a:	b3 01       	movw	r22, r6
     76c:	c8 01       	movw	r24, r16
     76e:	0e 94 f8 0b 	call	0x17f0	; 0x17f0 <strcat>
	strcat(paquete,"\r\nContent-length: ");
     772:	d8 01       	movw	r26, r16
     774:	0d 90       	ld	r0, X+
     776:	00 20       	and	r0, r0
     778:	e9 f7       	brne	.-6      	; 0x774 <Post_f+0xcc>
     77a:	11 97       	sbiw	r26, 0x01	; 1
     77c:	83 e1       	ldi	r24, 0x13	; 19
     77e:	e5 ee       	ldi	r30, 0xE5	; 229
     780:	f4 e0       	ldi	r31, 0x04	; 4
     782:	01 90       	ld	r0, Z+
     784:	0d 92       	st	X+, r0
     786:	8a 95       	dec	r24
     788:	e1 f7       	brne	.-8      	; 0x782 <Post_f+0xda>
	sprintf(longi,"%ld",strlen(data));
     78a:	f6 01       	movw	r30, r12
     78c:	01 90       	ld	r0, Z+
     78e:	00 20       	and	r0, r0
     790:	e9 f7       	brne	.-6      	; 0x78c <Post_f+0xe4>
     792:	31 97       	sbiw	r30, 0x01	; 1
     794:	ec 19       	sub	r30, r12
     796:	fd 09       	sbc	r31, r13
     798:	ff 93       	push	r31
     79a:	ef 93       	push	r30
     79c:	88 ef       	ldi	r24, 0xF8	; 248
     79e:	94 e0       	ldi	r25, 0x04	; 4
     7a0:	9f 93       	push	r25
     7a2:	8f 93       	push	r24
     7a4:	ff 92       	push	r15
     7a6:	ef 92       	push	r14
     7a8:	0e 94 55 0c 	call	0x18aa	; 0x18aa <sprintf>
	strcat(paquete,longi);
     7ac:	b7 01       	movw	r22, r14
     7ae:	c8 01       	movw	r24, r16
     7b0:	0e 94 f8 0b 	call	0x17f0	; 0x17f0 <strcat>
	strcat(paquete,"\r\n\r\n{\"data\": ");
     7b4:	d8 01       	movw	r26, r16
     7b6:	0d 90       	ld	r0, X+
     7b8:	00 20       	and	r0, r0
     7ba:	e9 f7       	brne	.-6      	; 0x7b6 <Post_f+0x10e>
     7bc:	11 97       	sbiw	r26, 0x01	; 1
     7be:	8e e0       	ldi	r24, 0x0E	; 14
     7c0:	ec ef       	ldi	r30, 0xFC	; 252
     7c2:	f4 e0       	ldi	r31, 0x04	; 4
     7c4:	01 90       	ld	r0, Z+
     7c6:	0d 92       	st	X+, r0
     7c8:	8a 95       	dec	r24
     7ca:	e1 f7       	brne	.-8      	; 0x7c4 <Post_f+0x11c>
		strcat(paquete,data);
     7cc:	b6 01       	movw	r22, r12
     7ce:	c8 01       	movw	r24, r16
     7d0:	0e 94 f8 0b 	call	0x17f0	; 0x17f0 <strcat>
	strcat(paquete,"}");
     7d4:	f8 01       	movw	r30, r16
     7d6:	01 90       	ld	r0, Z+
     7d8:	00 20       	and	r0, r0
     7da:	e9 f7       	brne	.-6      	; 0x7d6 <Post_f+0x12e>
     7dc:	31 97       	sbiw	r30, 0x01	; 1
     7de:	8d e7       	ldi	r24, 0x7D	; 125
     7e0:	90 e0       	ldi	r25, 0x00	; 0
     7e2:	91 83       	std	Z+1, r25	; 0x01
     7e4:	80 83       	st	Z, r24
	ESPXX_Send(paquete);
     7e6:	c8 01       	movw	r24, r16
     7e8:	0e 94 a1 02 	call	0x542	; 0x542 <ESPXX_Send>
	return;
     7ec:	0f 90       	pop	r0
     7ee:	0f 90       	pop	r0
     7f0:	0f 90       	pop	r0
     7f2:	0f 90       	pop	r0
     7f4:	0f 90       	pop	r0
     7f6:	0f 90       	pop	r0
}
     7f8:	ce 58       	subi	r28, 0x8E	; 142
     7fa:	de 4f       	sbci	r29, 0xFE	; 254
     7fc:	0f b6       	in	r0, 0x3f	; 63
     7fe:	f8 94       	cli
     800:	de bf       	out	0x3e, r29	; 62
     802:	0f be       	out	0x3f, r0	; 63
     804:	cd bf       	out	0x3d, r28	; 61
     806:	df 91       	pop	r29
     808:	cf 91       	pop	r28
     80a:	1f 91       	pop	r17
     80c:	0f 91       	pop	r16
     80e:	ff 90       	pop	r15
     810:	ef 90       	pop	r14
     812:	df 90       	pop	r13
     814:	cf 90       	pop	r12
     816:	bf 90       	pop	r11
     818:	af 90       	pop	r10
     81a:	9f 90       	pop	r9
     81c:	8f 90       	pop	r8
     81e:	7f 90       	pop	r7
     820:	6f 90       	pop	r6
     822:	08 95       	ret

00000824 <Get_f>:
void Get_f(char * channel, char * resource, char * token){
     824:	af 92       	push	r10
     826:	bf 92       	push	r11
     828:	cf 92       	push	r12
     82a:	df 92       	push	r13
     82c:	ef 92       	push	r14
     82e:	ff 92       	push	r15
     830:	0f 93       	push	r16
     832:	1f 93       	push	r17
     834:	cf 93       	push	r28
     836:	df 93       	push	r29
     838:	cd b7       	in	r28, 0x3d	; 61
     83a:	de b7       	in	r29, 0x3e	; 62
     83c:	ce 55       	subi	r28, 0x5E	; 94
     83e:	d1 40       	sbci	r29, 0x01	; 1
     840:	0f b6       	in	r0, 0x3f	; 63
     842:	f8 94       	cli
     844:	de bf       	out	0x3e, r29	; 62
     846:	0f be       	out	0x3f, r0	; 63
     848:	cd bf       	out	0x3d, r28	; 61
     84a:	5c 01       	movw	r10, r24
     84c:	6b 01       	movw	r12, r22
     84e:	7a 01       	movw	r14, r20
	ESPXX_Start(0, DOMAIN, PORT);
     850:	41 ed       	ldi	r20, 0xD1	; 209
     852:	54 e0       	ldi	r21, 0x04	; 4
     854:	64 ed       	ldi	r22, 0xD4	; 212
     856:	74 e0       	ldi	r23, 0x04	; 4
     858:	80 e0       	ldi	r24, 0x00	; 0
     85a:	0e 94 62 02 	call	0x4c4	; 0x4c4 <ESPXX_Start>
	char paquete[350]="GET /v1/data/read/";
     85e:	83 e1       	ldi	r24, 0x13	; 19
     860:	e4 e6       	ldi	r30, 0x64	; 100
     862:	f2 e0       	ldi	r31, 0x02	; 2
     864:	8e 01       	movw	r16, r28
     866:	0f 5f       	subi	r16, 0xFF	; 255
     868:	1f 4f       	sbci	r17, 0xFF	; 255
     86a:	d8 01       	movw	r26, r16
     86c:	01 90       	ld	r0, Z+
     86e:	0d 92       	st	X+, r0
     870:	8a 95       	dec	r24
     872:	e1 f7       	brne	.-8      	; 0x86c <Get_f+0x48>
     874:	fe 01       	movw	r30, r28
     876:	74 96       	adiw	r30, 0x14	; 20
     878:	8b e4       	ldi	r24, 0x4B	; 75
     87a:	91 e0       	ldi	r25, 0x01	; 1
     87c:	df 01       	movw	r26, r30
     87e:	9c 01       	movw	r18, r24
     880:	1d 92       	st	X+, r1
     882:	21 50       	subi	r18, 0x01	; 1
     884:	30 40       	sbci	r19, 0x00	; 0
     886:	e1 f7       	brne	.-8      	; 0x880 <Get_f+0x5c>
	strcat(paquete,channel);
     888:	b5 01       	movw	r22, r10
     88a:	c8 01       	movw	r24, r16
     88c:	0e 94 f8 0b 	call	0x17f0	; 0x17f0 <strcat>
	strcat(paquete,"/");
     890:	f8 01       	movw	r30, r16
     892:	01 90       	ld	r0, Z+
     894:	00 20       	and	r0, r0
     896:	e9 f7       	brne	.-6      	; 0x892 <Get_f+0x6e>
     898:	31 97       	sbiw	r30, 0x01	; 1
     89a:	8f e2       	ldi	r24, 0x2F	; 47
     89c:	90 e0       	ldi	r25, 0x00	; 0
     89e:	91 83       	std	Z+1, r25	; 0x01
     8a0:	80 83       	st	Z, r24
	strcat(paquete,resource);
     8a2:	b6 01       	movw	r22, r12
     8a4:	c8 01       	movw	r24, r16
     8a6:	0e 94 f8 0b 	call	0x17f0	; 0x17f0 <strcat>
	strcat(paquete,"?limit=1 HTTP/1.1\r\nAccept: application/json\r\nContent-Type: application/json\r\nHost: api.beebotte.com\r\nX-Auth-Token: ");
     8aa:	d8 01       	movw	r26, r16
     8ac:	0d 90       	ld	r0, X+
     8ae:	00 20       	and	r0, r0
     8b0:	e9 f7       	brne	.-6      	; 0x8ac <Get_f+0x88>
     8b2:	11 97       	sbiw	r26, 0x01	; 1
     8b4:	84 e7       	ldi	r24, 0x74	; 116
     8b6:	ea e0       	ldi	r30, 0x0A	; 10
     8b8:	f5 e0       	ldi	r31, 0x05	; 5
     8ba:	01 90       	ld	r0, Z+
     8bc:	0d 92       	st	X+, r0
     8be:	8a 95       	dec	r24
     8c0:	e1 f7       	brne	.-8      	; 0x8ba <Get_f+0x96>
	strcat(paquete,token);
     8c2:	b7 01       	movw	r22, r14
     8c4:	c8 01       	movw	r24, r16
     8c6:	0e 94 f8 0b 	call	0x17f0	; 0x17f0 <strcat>
	strcat(paquete,"\r\n\r\n");
     8ca:	d8 01       	movw	r26, r16
     8cc:	0d 90       	ld	r0, X+
     8ce:	00 20       	and	r0, r0
     8d0:	e9 f7       	brne	.-6      	; 0x8cc <Get_f+0xa8>
     8d2:	11 97       	sbiw	r26, 0x01	; 1
     8d4:	85 e0       	ldi	r24, 0x05	; 5
     8d6:	ee e7       	ldi	r30, 0x7E	; 126
     8d8:	f5 e0       	ldi	r31, 0x05	; 5
     8da:	01 90       	ld	r0, Z+
     8dc:	0d 92       	st	X+, r0
     8de:	8a 95       	dec	r24
     8e0:	e1 f7       	brne	.-8      	; 0x8da <Get_f+0xb6>
	ESPXX_Send(paquete);
     8e2:	c8 01       	movw	r24, r16
     8e4:	0e 94 a1 02 	call	0x542	; 0x542 <ESPXX_Send>
	return;
}
     8e8:	c2 5a       	subi	r28, 0xA2	; 162
     8ea:	de 4f       	sbci	r29, 0xFE	; 254
     8ec:	0f b6       	in	r0, 0x3f	; 63
     8ee:	f8 94       	cli
     8f0:	de bf       	out	0x3e, r29	; 62
     8f2:	0f be       	out	0x3f, r0	; 63
     8f4:	cd bf       	out	0x3d, r28	; 61
     8f6:	df 91       	pop	r29
     8f8:	cf 91       	pop	r28
     8fa:	1f 91       	pop	r17
     8fc:	0f 91       	pop	r16
     8fe:	ff 90       	pop	r15
     900:	ef 90       	pop	r14
     902:	df 90       	pop	r13
     904:	cf 90       	pop	r12
     906:	bf 90       	pop	r11
     908:	af 90       	pop	r10
     90a:	08 95       	ret

0000090c <ds3231_read_eeprom>:
static int8_t ds3231_write_eeprom ( uint8_t addr, const void *data, size_t len )
{
    return i2c_start (  ) ||
        i2c_addr ( DS3231_I2C_SLAW_WRITE ) ||
        i2c_tx_byte ( addr ) || i2c_tx_data ( ( const uint8_t * ) data, len ) || i2c_stop (  );
}
     90c:	ef 92       	push	r14
     90e:	ff 92       	push	r15
     910:	0f 93       	push	r16
     912:	1f 93       	push	r17
     914:	cf 93       	push	r28
     916:	c8 2f       	mov	r28, r24
     918:	8b 01       	movw	r16, r22
     91a:	7a 01       	movw	r14, r20
     91c:	0e 94 a2 05 	call	0xb44	; 0xb44 <i2c_start>
     920:	81 11       	cpse	r24, r1
     922:	1e c0       	rjmp	.+60     	; 0x960 <ds3231_read_eeprom+0x54>
     924:	80 ed       	ldi	r24, 0xD0	; 208
     926:	0e 94 c5 05 	call	0xb8a	; 0xb8a <i2c_addr>
     92a:	81 11       	cpse	r24, r1
     92c:	1b c0       	rjmp	.+54     	; 0x964 <ds3231_read_eeprom+0x58>
     92e:	8c 2f       	mov	r24, r28
     930:	0e 94 e0 05 	call	0xbc0	; 0xbc0 <i2c_tx_byte>
     934:	81 11       	cpse	r24, r1
     936:	18 c0       	rjmp	.+48     	; 0x968 <ds3231_read_eeprom+0x5c>
     938:	0e 94 af 05 	call	0xb5e	; 0xb5e <i2c_restart>
     93c:	81 11       	cpse	r24, r1
     93e:	16 c0       	rjmp	.+44     	; 0x96c <ds3231_read_eeprom+0x60>
     940:	81 ed       	ldi	r24, 0xD1	; 209
     942:	0e 94 c5 05 	call	0xb8a	; 0xb8a <i2c_addr>
     946:	81 11       	cpse	r24, r1
     948:	13 c0       	rjmp	.+38     	; 0x970 <ds3231_read_eeprom+0x64>
     94a:	b7 01       	movw	r22, r14
     94c:	c8 01       	movw	r24, r16
     94e:	0e 94 19 06 	call	0xc32	; 0xc32 <i2c_rx_data>
     952:	81 11       	cpse	r24, r1
     954:	0f c0       	rjmp	.+30     	; 0x974 <ds3231_read_eeprom+0x68>
     956:	0e 94 bc 05 	call	0xb78	; 0xb78 <i2c_stop>
     95a:	81 11       	cpse	r24, r1
     95c:	0d c0       	rjmp	.+26     	; 0x978 <ds3231_read_eeprom+0x6c>
     95e:	0d c0       	rjmp	.+26     	; 0x97a <ds3231_read_eeprom+0x6e>
     960:	81 e0       	ldi	r24, 0x01	; 1
     962:	0b c0       	rjmp	.+22     	; 0x97a <ds3231_read_eeprom+0x6e>
     964:	81 e0       	ldi	r24, 0x01	; 1
     966:	09 c0       	rjmp	.+18     	; 0x97a <ds3231_read_eeprom+0x6e>
     968:	81 e0       	ldi	r24, 0x01	; 1
     96a:	07 c0       	rjmp	.+14     	; 0x97a <ds3231_read_eeprom+0x6e>
     96c:	81 e0       	ldi	r24, 0x01	; 1
     96e:	05 c0       	rjmp	.+10     	; 0x97a <ds3231_read_eeprom+0x6e>
     970:	81 e0       	ldi	r24, 0x01	; 1
     972:	03 c0       	rjmp	.+6      	; 0x97a <ds3231_read_eeprom+0x6e>
     974:	81 e0       	ldi	r24, 0x01	; 1
     976:	01 c0       	rjmp	.+2      	; 0x97a <ds3231_read_eeprom+0x6e>
     978:	81 e0       	ldi	r24, 0x01	; 1
     97a:	cf 91       	pop	r28
     97c:	1f 91       	pop	r17
     97e:	0f 91       	pop	r16
     980:	ff 90       	pop	r15
     982:	ef 90       	pop	r14
     984:	08 95       	ret

00000986 <ds3231_read_clock>:

/**
 * Read RTC Clock Data
 */
int8_t ds3231_read_clock ( struct ds3231_clock_t *clock )
{
     986:	0f 93       	push	r16
     988:	1f 93       	push	r17
     98a:	cf 93       	push	r28
     98c:	df 93       	push	r29
     98e:	cd b7       	in	r28, 0x3d	; 61
     990:	de b7       	in	r29, 0x3e	; 62
     992:	27 97       	sbiw	r28, 0x07	; 7
     994:	0f b6       	in	r0, 0x3f	; 63
     996:	f8 94       	cli
     998:	de bf       	out	0x3e, r29	; 62
     99a:	0f be       	out	0x3f, r0	; 63
     99c:	cd bf       	out	0x3d, r28	; 61
     99e:	8c 01       	movw	r16, r24
    struct ds3231_raw_clock_t raw;

    if ( ds3231_read_eeprom ( DS3231_EEPROM_CLOCK, &raw, sizeof ( raw ) ) )
     9a0:	47 e0       	ldi	r20, 0x07	; 7
     9a2:	50 e0       	ldi	r21, 0x00	; 0
     9a4:	be 01       	movw	r22, r28
     9a6:	6f 5f       	subi	r22, 0xFF	; 255
     9a8:	7f 4f       	sbci	r23, 0xFF	; 255
     9aa:	80 e0       	ldi	r24, 0x00	; 0
     9ac:	0e 94 86 04 	call	0x90c	; 0x90c <ds3231_read_eeprom>
     9b0:	81 11       	cpse	r24, r1
     9b2:	66 c0       	rjmp	.+204    	; 0xa80 <ds3231_read_clock+0xfa>
    {
        return 1;
    }

    clock->seconds = raw.seconds10 * 10 + raw.seconds;
     9b4:	99 81       	ldd	r25, Y+1	; 0x01
     9b6:	39 2f       	mov	r19, r25
     9b8:	32 95       	swap	r19
     9ba:	3f 70       	andi	r19, 0x0F	; 15
     9bc:	37 70       	andi	r19, 0x07	; 7
     9be:	29 2f       	mov	r18, r25
     9c0:	2f 70       	andi	r18, 0x0F	; 15
     9c2:	33 0f       	add	r19, r19
     9c4:	93 2f       	mov	r25, r19
     9c6:	99 0f       	add	r25, r25
     9c8:	99 0f       	add	r25, r25
     9ca:	39 0f       	add	r19, r25
     9cc:	93 2f       	mov	r25, r19
     9ce:	92 0f       	add	r25, r18
     9d0:	f8 01       	movw	r30, r16
     9d2:	90 83       	st	Z, r25
    clock->minutes = raw.minutes10 * 10 + raw.minutes;
     9d4:	9a 81       	ldd	r25, Y+2	; 0x02
     9d6:	39 2f       	mov	r19, r25
     9d8:	32 95       	swap	r19
     9da:	3f 70       	andi	r19, 0x0F	; 15
     9dc:	37 70       	andi	r19, 0x07	; 7
     9de:	29 2f       	mov	r18, r25
     9e0:	2f 70       	andi	r18, 0x0F	; 15
     9e2:	33 0f       	add	r19, r19
     9e4:	93 2f       	mov	r25, r19
     9e6:	99 0f       	add	r25, r25
     9e8:	99 0f       	add	r25, r25
     9ea:	39 0f       	add	r19, r25
     9ec:	93 2f       	mov	r25, r19
     9ee:	92 0f       	add	r25, r18
     9f0:	91 83       	std	Z+1, r25	; 0x01
    clock->hours = raw.hours10 * 10 + raw.hours;
     9f2:	9b 81       	ldd	r25, Y+3	; 0x03
     9f4:	29 2f       	mov	r18, r25
     9f6:	22 95       	swap	r18
     9f8:	2f 70       	andi	r18, 0x0F	; 15
     9fa:	23 70       	andi	r18, 0x03	; 3
     9fc:	39 2f       	mov	r19, r25
     9fe:	3f 70       	andi	r19, 0x0F	; 15
     a00:	22 0f       	add	r18, r18
     a02:	42 2f       	mov	r20, r18
     a04:	44 0f       	add	r20, r20
     a06:	44 0f       	add	r20, r20
     a08:	24 0f       	add	r18, r20
     a0a:	23 0f       	add	r18, r19
     a0c:	22 83       	std	Z+2, r18	; 0x02
    clock->day = raw.hours10 * 10 + raw.day;
     a0e:	92 95       	swap	r25
     a10:	9f 70       	andi	r25, 0x0F	; 15
     a12:	93 70       	andi	r25, 0x03	; 3
     a14:	2c 81       	ldd	r18, Y+4	; 0x04
     a16:	27 70       	andi	r18, 0x07	; 7
     a18:	99 0f       	add	r25, r25
     a1a:	94 0f       	add	r25, r20
     a1c:	92 0f       	add	r25, r18
     a1e:	93 83       	std	Z+3, r25	; 0x03
    clock->date = raw.date10 * 10 + raw.date;
     a20:	9d 81       	ldd	r25, Y+5	; 0x05
     a22:	39 2f       	mov	r19, r25
     a24:	32 95       	swap	r19
     a26:	3f 70       	andi	r19, 0x0F	; 15
     a28:	33 70       	andi	r19, 0x03	; 3
     a2a:	29 2f       	mov	r18, r25
     a2c:	2f 70       	andi	r18, 0x0F	; 15
     a2e:	33 0f       	add	r19, r19
     a30:	93 2f       	mov	r25, r19
     a32:	99 0f       	add	r25, r25
     a34:	99 0f       	add	r25, r25
     a36:	39 0f       	add	r19, r25
     a38:	93 2f       	mov	r25, r19
     a3a:	92 0f       	add	r25, r18
     a3c:	94 83       	std	Z+4, r25	; 0x04
    clock->century = raw.century;
     a3e:	9e 81       	ldd	r25, Y+6	; 0x06
     a40:	97 fb       	bst	r25, 7
     a42:	22 27       	eor	r18, r18
     a44:	20 f9       	bld	r18, 0
     a46:	25 83       	std	Z+5, r18	; 0x05
    clock->month = raw.month10 * 10 + raw.month;
     a48:	94 fb       	bst	r25, 4
     a4a:	33 27       	eor	r19, r19
     a4c:	30 f9       	bld	r19, 0
     a4e:	29 2f       	mov	r18, r25
     a50:	2f 70       	andi	r18, 0x0F	; 15
     a52:	93 2f       	mov	r25, r19
     a54:	99 0f       	add	r25, r25
     a56:	39 2f       	mov	r19, r25
     a58:	33 0f       	add	r19, r19
     a5a:	33 0f       	add	r19, r19
     a5c:	93 0f       	add	r25, r19
     a5e:	92 0f       	add	r25, r18
     a60:	96 83       	std	Z+6, r25	; 0x06
    clock->year = raw.year10 * 10 + raw.year;
     a62:	9f 81       	ldd	r25, Y+7	; 0x07
     a64:	39 2f       	mov	r19, r25
     a66:	32 95       	swap	r19
     a68:	3f 70       	andi	r19, 0x0F	; 15
     a6a:	29 2f       	mov	r18, r25
     a6c:	2f 70       	andi	r18, 0x0F	; 15
     a6e:	93 2f       	mov	r25, r19
     a70:	99 0f       	add	r25, r25
     a72:	39 2f       	mov	r19, r25
     a74:	33 0f       	add	r19, r19
     a76:	33 0f       	add	r19, r19
     a78:	93 0f       	add	r25, r19
     a7a:	92 0f       	add	r25, r18
     a7c:	97 83       	std	Z+7, r25	; 0x07

    return 0;
     a7e:	01 c0       	rjmp	.+2      	; 0xa82 <ds3231_read_clock+0xfc>
{
    struct ds3231_raw_clock_t raw;

    if ( ds3231_read_eeprom ( DS3231_EEPROM_CLOCK, &raw, sizeof ( raw ) ) )
    {
        return 1;
     a80:	81 e0       	ldi	r24, 0x01	; 1
    clock->century = raw.century;
    clock->month = raw.month10 * 10 + raw.month;
    clock->year = raw.year10 * 10 + raw.year;

    return 0;
}
     a82:	27 96       	adiw	r28, 0x07	; 7
     a84:	0f b6       	in	r0, 0x3f	; 63
     a86:	f8 94       	cli
     a88:	de bf       	out	0x3e, r29	; 62
     a8a:	0f be       	out	0x3f, r0	; 63
     a8c:	cd bf       	out	0x3d, r28	; 61
     a8e:	df 91       	pop	r29
     a90:	cf 91       	pop	r28
     a92:	1f 91       	pop	r17
     a94:	0f 91       	pop	r16
     a96:	08 95       	ret

00000a98 <rfid_config>:
	}
	else{
		return 0;
	}
	
}
     a98:	82 e0       	ldi	r24, 0x02	; 2
     a9a:	0e 94 59 06 	call	0xcb2	; 0xcb2 <mfrc522_read>
     a9e:	80 93 5e 07 	sts	0x075E, r24	; 0x80075e <byte>
     aa2:	68 2f       	mov	r22, r24
     aa4:	60 62       	ori	r22, 0x20	; 32
     aa6:	82 e0       	ldi	r24, 0x02	; 2
     aa8:	0e 94 46 06 	call	0xc8c	; 0xc8c <mfrc522_write>
     aac:	83 e0       	ldi	r24, 0x03	; 3
     aae:	0e 94 59 06 	call	0xcb2	; 0xcb2 <mfrc522_read>
     ab2:	80 93 5e 07 	sts	0x075E, r24	; 0x80075e <byte>
     ab6:	68 2f       	mov	r22, r24
     ab8:	60 68       	ori	r22, 0x80	; 128
     aba:	83 e0       	ldi	r24, 0x03	; 3
     abc:	0e 94 46 06 	call	0xc8c	; 0xc8c <mfrc522_write>
     ac0:	08 95       	ret

00000ac2 <errorhandler>:
			errorhandler(ERROR20);
			return 0;
		}
}

void errorhandler(uint8_t errorcode){
     ac2:	cf 93       	push	r28
     ac4:	c8 2f       	mov	r28, r24
	if(errorcode == ERROR10){
     ac6:	8a 30       	cpi	r24, 0x0A	; 10
     ac8:	21 f4       	brne	.+8      	; 0xad2 <errorhandler+0x10>
		USART_putstring("No sensor detected\r\n");
     aca:	83 e8       	ldi	r24, 0x83	; 131
     acc:	95 e0       	ldi	r25, 0x05	; 5
     ace:	0e 94 2a 08 	call	0x1054	; 0x1054 <USART_putstring>
	}
	if(errorcode == ERROR20){
     ad2:	c4 31       	cpi	r28, 0x14	; 20
     ad4:	21 f4       	brne	.+8      	; 0xade <errorhandler+0x1c>
		USART_putstring("No RTC conectado");
     ad6:	88 e9       	ldi	r24, 0x98	; 152
     ad8:	95 e0       	ldi	r25, 0x05	; 5
     ada:	0e 94 2a 08 	call	0x1054	; 0x1054 <USART_putstring>
	}
	if(errorcode == ERROR30){
     ade:	ce 31       	cpi	r28, 0x1E	; 30
     ae0:	21 f4       	brne	.+8      	; 0xaea <errorhandler+0x28>
		USART_putstring("ESP no conectado");
     ae2:	89 ea       	ldi	r24, 0xA9	; 169
     ae4:	95 e0       	ldi	r25, 0x05	; 5
     ae6:	0e 94 2a 08 	call	0x1054	; 0x1054 <USART_putstring>
	}
	
}
     aea:	cf 91       	pop	r28
     aec:	08 95       	ret

00000aee <rfid_alive>:



uint8_t rfid_alive(){
	
	byte = mfrc522_read(VersionReg);
     aee:	87 e3       	ldi	r24, 0x37	; 55
     af0:	0e 94 59 06 	call	0xcb2	; 0xcb2 <mfrc522_read>
     af4:	80 93 5e 07 	sts	0x075E, r24	; 0x80075e <byte>
	if(byte == 0x92 || byte == 0x91 || byte==0x90){
     af8:	80 59       	subi	r24, 0x90	; 144
     afa:	83 30       	cpi	r24, 0x03	; 3
     afc:	28 f0       	brcs	.+10     	; 0xb08 <rfid_alive+0x1a>
		
		return 1;
	}
	else{
		errorhandler(ERROR10);
     afe:	8a e0       	ldi	r24, 0x0A	; 10
     b00:	0e 94 61 05 	call	0xac2	; 0xac2 <errorhandler>

		return 0;
     b04:	80 e0       	ldi	r24, 0x00	; 0
     b06:	08 95       	ret
uint8_t rfid_alive(){
	
	byte = mfrc522_read(VersionReg);
	if(byte == 0x92 || byte == 0x91 || byte==0x90){
		
		return 1;
     b08:	81 e0       	ldi	r24, 0x01	; 1
		errorhandler(ERROR10);

		return 0;
	}
	
}
     b0a:	08 95       	ret

00000b0c <rtc_alive>:
		return 0;
	}
	
}
uint8_t rtc_alive(){
	if(!(i2c_start (  ) ||
     b0c:	0e 94 a2 05 	call	0xb44	; 0xb44 <i2c_start>
     b10:	81 11       	cpse	r24, r1
     b12:	05 c0       	rjmp	.+10     	; 0xb1e <rtc_alive+0x12>
	i2c_addr ( DS3231_I2C_SLAW_WRITE ))){
     b14:	80 ed       	ldi	r24, 0xD0	; 208
     b16:	0e 94 c5 05 	call	0xb8a	; 0xb8a <i2c_addr>
		return 0;
	}
	
}
uint8_t rtc_alive(){
	if(!(i2c_start (  ) ||
     b1a:	88 23       	and	r24, r24
     b1c:	29 f0       	breq	.+10     	; 0xb28 <rtc_alive+0x1c>
	i2c_addr ( DS3231_I2C_SLAW_WRITE ))){
		return 1;
		} 
	else
		{
			errorhandler(ERROR20);
     b1e:	84 e1       	ldi	r24, 0x14	; 20
     b20:	0e 94 61 05 	call	0xac2	; 0xac2 <errorhandler>
			return 0;
     b24:	80 e0       	ldi	r24, 0x00	; 0
     b26:	08 95       	ret
	
}
uint8_t rtc_alive(){
	if(!(i2c_start (  ) ||
	i2c_addr ( DS3231_I2C_SLAW_WRITE ))){
		return 1;
     b28:	81 e0       	ldi	r24, 0x01	; 1
	else
		{
			errorhandler(ERROR20);
			return 0;
		}
}
     b2a:	08 95       	ret

00000b2c <i2c_wait>:
            return 1;
        }
    }

    return 0;
}
     b2c:	80 91 bc 00 	lds	r24, 0x00BC	; 0x8000bc <__TEXT_REGION_LENGTH__+0x7f80bc>
     b30:	88 23       	and	r24, r24
     b32:	e4 f7       	brge	.-8      	; 0xb2c <i2c_wait>
     b34:	08 95       	ret

00000b36 <i2c_init>:
     b36:	84 e0       	ldi	r24, 0x04	; 4
     b38:	80 93 bc 00 	sts	0x00BC, r24	; 0x8000bc <__TEXT_REGION_LENGTH__+0x7f80bc>
     b3c:	88 e4       	ldi	r24, 0x48	; 72
     b3e:	80 93 b8 00 	sts	0x00B8, r24	; 0x8000b8 <__TEXT_REGION_LENGTH__+0x7f80b8>
     b42:	08 95       	ret

00000b44 <i2c_start>:
     b44:	84 ea       	ldi	r24, 0xA4	; 164
     b46:	80 93 bc 00 	sts	0x00BC, r24	; 0x8000bc <__TEXT_REGION_LENGTH__+0x7f80bc>
     b4a:	0e 94 96 05 	call	0xb2c	; 0xb2c <i2c_wait>
     b4e:	90 91 b9 00 	lds	r25, 0x00B9	; 0x8000b9 <__TEXT_REGION_LENGTH__+0x7f80b9>
     b52:	98 7f       	andi	r25, 0xF8	; 248
     b54:	81 e0       	ldi	r24, 0x01	; 1
     b56:	98 30       	cpi	r25, 0x08	; 8
     b58:	09 f4       	brne	.+2      	; 0xb5c <i2c_start+0x18>
     b5a:	80 e0       	ldi	r24, 0x00	; 0
     b5c:	08 95       	ret

00000b5e <i2c_restart>:
     b5e:	84 ea       	ldi	r24, 0xA4	; 164
     b60:	80 93 bc 00 	sts	0x00BC, r24	; 0x8000bc <__TEXT_REGION_LENGTH__+0x7f80bc>
     b64:	0e 94 96 05 	call	0xb2c	; 0xb2c <i2c_wait>
     b68:	90 91 b9 00 	lds	r25, 0x00B9	; 0x8000b9 <__TEXT_REGION_LENGTH__+0x7f80b9>
     b6c:	98 7f       	andi	r25, 0xF8	; 248
     b6e:	81 e0       	ldi	r24, 0x01	; 1
     b70:	90 31       	cpi	r25, 0x10	; 16
     b72:	09 f4       	brne	.+2      	; 0xb76 <i2c_restart+0x18>
     b74:	80 e0       	ldi	r24, 0x00	; 0
     b76:	08 95       	ret

00000b78 <i2c_stop>:
     b78:	84 e9       	ldi	r24, 0x94	; 148
     b7a:	80 93 bc 00 	sts	0x00BC, r24	; 0x8000bc <__TEXT_REGION_LENGTH__+0x7f80bc>
     b7e:	80 91 bc 00 	lds	r24, 0x00BC	; 0x8000bc <__TEXT_REGION_LENGTH__+0x7f80bc>
     b82:	84 fd       	sbrc	r24, 4
     b84:	fc cf       	rjmp	.-8      	; 0xb7e <i2c_stop+0x6>
     b86:	80 e0       	ldi	r24, 0x00	; 0
     b88:	08 95       	ret

00000b8a <i2c_addr>:
     b8a:	cf 93       	push	r28
     b8c:	c8 2f       	mov	r28, r24
     b8e:	80 93 bb 00 	sts	0x00BB, r24	; 0x8000bb <__TEXT_REGION_LENGTH__+0x7f80bb>
     b92:	84 e8       	ldi	r24, 0x84	; 132
     b94:	80 93 bc 00 	sts	0x00BC, r24	; 0x8000bc <__TEXT_REGION_LENGTH__+0x7f80bc>
     b98:	0e 94 96 05 	call	0xb2c	; 0xb2c <i2c_wait>
     b9c:	20 91 b9 00 	lds	r18, 0x00B9	; 0x8000b9 <__TEXT_REGION_LENGTH__+0x7f80b9>
     ba0:	28 7f       	andi	r18, 0xF8	; 248
     ba2:	30 e0       	ldi	r19, 0x00	; 0
     ba4:	c0 ff       	sbrs	r28, 0
     ba6:	03 c0       	rjmp	.+6      	; 0xbae <i2c_addr+0x24>
     ba8:	40 e4       	ldi	r20, 0x40	; 64
     baa:	50 e0       	ldi	r21, 0x00	; 0
     bac:	02 c0       	rjmp	.+4      	; 0xbb2 <i2c_addr+0x28>
     bae:	48 e1       	ldi	r20, 0x18	; 24
     bb0:	50 e0       	ldi	r21, 0x00	; 0
     bb2:	81 e0       	ldi	r24, 0x01	; 1
     bb4:	42 17       	cp	r20, r18
     bb6:	53 07       	cpc	r21, r19
     bb8:	09 f4       	brne	.+2      	; 0xbbc <i2c_addr+0x32>
     bba:	80 e0       	ldi	r24, 0x00	; 0
     bbc:	cf 91       	pop	r28
     bbe:	08 95       	ret

00000bc0 <i2c_tx_byte>:
     bc0:	80 93 bb 00 	sts	0x00BB, r24	; 0x8000bb <__TEXT_REGION_LENGTH__+0x7f80bb>
     bc4:	84 e8       	ldi	r24, 0x84	; 132
     bc6:	80 93 bc 00 	sts	0x00BC, r24	; 0x8000bc <__TEXT_REGION_LENGTH__+0x7f80bc>
     bca:	0e 94 96 05 	call	0xb2c	; 0xb2c <i2c_wait>
     bce:	90 91 b9 00 	lds	r25, 0x00B9	; 0x8000b9 <__TEXT_REGION_LENGTH__+0x7f80b9>
     bd2:	98 7f       	andi	r25, 0xF8	; 248
     bd4:	81 e0       	ldi	r24, 0x01	; 1
     bd6:	98 32       	cpi	r25, 0x28	; 40
     bd8:	09 f4       	brne	.+2      	; 0xbdc <i2c_tx_byte+0x1c>
     bda:	80 e0       	ldi	r24, 0x00	; 0
     bdc:	08 95       	ret

00000bde <i2c_rx_byte>:

/**
 * Receive data byte from Slave Device
 */
int8_t i2c_rx_byte ( uint8_t * byte )
{
     bde:	cf 93       	push	r28
     be0:	df 93       	push	r29
     be2:	ec 01       	movw	r28, r24
    TWCR = _BV ( TWEN ) | _BV ( TWINT ) | _BV ( TWEA );
     be4:	84 ec       	ldi	r24, 0xC4	; 196
     be6:	80 93 bc 00 	sts	0x00BC, r24	; 0x8000bc <__TEXT_REGION_LENGTH__+0x7f80bc>
    i2c_wait (  );
     bea:	0e 94 96 05 	call	0xb2c	; 0xb2c <i2c_wait>
    *byte = TWDR;
     bee:	80 91 bb 00 	lds	r24, 0x00BB	; 0x8000bb <__TEXT_REGION_LENGTH__+0x7f80bb>
     bf2:	88 83       	st	Y, r24
    return ( TWSR & TW_STATUS_MASK ) != TW_MR_DATA_ACK;
     bf4:	90 91 b9 00 	lds	r25, 0x00B9	; 0x8000b9 <__TEXT_REGION_LENGTH__+0x7f80b9>
     bf8:	98 7f       	andi	r25, 0xF8	; 248
     bfa:	81 e0       	ldi	r24, 0x01	; 1
     bfc:	90 35       	cpi	r25, 0x50	; 80
     bfe:	09 f4       	brne	.+2      	; 0xc02 <i2c_rx_byte+0x24>
     c00:	80 e0       	ldi	r24, 0x00	; 0
}
     c02:	df 91       	pop	r29
     c04:	cf 91       	pop	r28
     c06:	08 95       	ret

00000c08 <i2c_rx_last>:

/**
 * Receive last data byte from Slave Device
 */
int8_t i2c_rx_last ( uint8_t * byte )
{
     c08:	cf 93       	push	r28
     c0a:	df 93       	push	r29
     c0c:	ec 01       	movw	r28, r24
    TWCR = _BV ( TWEN ) | _BV ( TWINT );
     c0e:	84 e8       	ldi	r24, 0x84	; 132
     c10:	80 93 bc 00 	sts	0x00BC, r24	; 0x8000bc <__TEXT_REGION_LENGTH__+0x7f80bc>
    i2c_wait (  );
     c14:	0e 94 96 05 	call	0xb2c	; 0xb2c <i2c_wait>
    *byte = TWDR;
     c18:	80 91 bb 00 	lds	r24, 0x00BB	; 0x8000bb <__TEXT_REGION_LENGTH__+0x7f80bb>
     c1c:	88 83       	st	Y, r24
    return ( TWSR & TW_STATUS_MASK ) != TW_MR_DATA_NACK;
     c1e:	90 91 b9 00 	lds	r25, 0x00B9	; 0x8000b9 <__TEXT_REGION_LENGTH__+0x7f80b9>
     c22:	98 7f       	andi	r25, 0xF8	; 248
     c24:	81 e0       	ldi	r24, 0x01	; 1
     c26:	98 35       	cpi	r25, 0x58	; 88
     c28:	09 f4       	brne	.+2      	; 0xc2c <i2c_rx_last+0x24>
     c2a:	80 e0       	ldi	r24, 0x00	; 0
}
     c2c:	df 91       	pop	r29
     c2e:	cf 91       	pop	r28
     c30:	08 95       	ret

00000c32 <i2c_rx_data>:

/**
 * Receive data bytes from Slave Device
 */
int8_t i2c_rx_data ( uint8_t * data, size_t len )
{
     c32:	ef 92       	push	r14
     c34:	ff 92       	push	r15
     c36:	0f 93       	push	r16
     c38:	1f 93       	push	r17
     c3a:	cf 93       	push	r28
     c3c:	df 93       	push	r29
     c3e:	7c 01       	movw	r14, r24
     c40:	8b 01       	movw	r16, r22
    size_t i;

    for ( i = 0; i + 1 < len; i++ )
     c42:	20 e0       	ldi	r18, 0x00	; 0
     c44:	30 e0       	ldi	r19, 0x00	; 0
     c46:	08 c0       	rjmp	.+16     	; 0xc58 <i2c_rx_data+0x26>
    {
        if ( i2c_rx_byte ( data + i ) )
     c48:	c7 01       	movw	r24, r14
     c4a:	82 0f       	add	r24, r18
     c4c:	93 1f       	adc	r25, r19
     c4e:	0e 94 ef 05 	call	0xbde	; 0xbde <i2c_rx_byte>
 */
int8_t i2c_rx_data ( uint8_t * data, size_t len )
{
    size_t i;

    for ( i = 0; i + 1 < len; i++ )
     c52:	9e 01       	movw	r18, r28
    {
        if ( i2c_rx_byte ( data + i ) )
     c54:	81 11       	cpse	r24, r1
     c56:	10 c0       	rjmp	.+32     	; 0xc78 <i2c_rx_data+0x46>
 */
int8_t i2c_rx_data ( uint8_t * data, size_t len )
{
    size_t i;

    for ( i = 0; i + 1 < len; i++ )
     c58:	e9 01       	movw	r28, r18
     c5a:	21 96       	adiw	r28, 0x01	; 1
     c5c:	c0 17       	cp	r28, r16
     c5e:	d1 07       	cpc	r29, r17
     c60:	98 f3       	brcs	.-26     	; 0xc48 <i2c_rx_data+0x16>
        {
            return 1;
        }
    }

    if ( len )
     c62:	01 2b       	or	r16, r17
     c64:	59 f0       	breq	.+22     	; 0xc7c <i2c_rx_data+0x4a>
    {
        if ( i2c_rx_last ( data + i ) )
     c66:	c7 01       	movw	r24, r14
     c68:	82 0f       	add	r24, r18
     c6a:	93 1f       	adc	r25, r19
     c6c:	0e 94 04 06 	call	0xc08	; 0xc08 <i2c_rx_last>
     c70:	88 23       	and	r24, r24
     c72:	29 f0       	breq	.+10     	; 0xc7e <i2c_rx_data+0x4c>
        {
            return 1;
     c74:	81 e0       	ldi	r24, 0x01	; 1
     c76:	03 c0       	rjmp	.+6      	; 0xc7e <i2c_rx_data+0x4c>

    for ( i = 0; i + 1 < len; i++ )
    {
        if ( i2c_rx_byte ( data + i ) )
        {
            return 1;
     c78:	81 e0       	ldi	r24, 0x01	; 1
     c7a:	01 c0       	rjmp	.+2      	; 0xc7e <i2c_rx_data+0x4c>
        {
            return 1;
        }
    }

    return 0;
     c7c:	80 e0       	ldi	r24, 0x00	; 0
}
     c7e:	df 91       	pop	r29
     c80:	cf 91       	pop	r28
     c82:	1f 91       	pop	r17
     c84:	0f 91       	pop	r16
     c86:	ff 90       	pop	r15
     c88:	ef 90       	pop	r14
     c8a:	08 95       	ret

00000c8c <mfrc522_write>:
		mfrc522_write(TxControlReg,byte|0x03);
	}
}

void mfrc522_write(uint8_t reg, uint8_t data)
{
     c8c:	cf 93       	push	r28
     c8e:	c6 2f       	mov	r28, r22
	ENABLE_CHIP();
     c90:	95 b1       	in	r25, 0x05	; 5
     c92:	9b 7f       	andi	r25, 0xFB	; 251
     c94:	95 b9       	out	0x05, r25	; 5
	spi_transmit((reg<<1)&0x7E);
     c96:	90 e0       	ldi	r25, 0x00	; 0
     c98:	88 0f       	add	r24, r24
     c9a:	99 1f       	adc	r25, r25
     c9c:	8e 77       	andi	r24, 0x7E	; 126
     c9e:	0e 94 0c 08 	call	0x1018	; 0x1018 <spi_transmit>
	spi_transmit(data);
     ca2:	8c 2f       	mov	r24, r28
     ca4:	0e 94 0c 08 	call	0x1018	; 0x1018 <spi_transmit>
	DISABLE_CHIP();
     ca8:	85 b1       	in	r24, 0x05	; 5
     caa:	84 60       	ori	r24, 0x04	; 4
     cac:	85 b9       	out	0x05, r24	; 5
}
     cae:	cf 91       	pop	r28
     cb0:	08 95       	ret

00000cb2 <mfrc522_read>:

uint8_t mfrc522_read(uint8_t reg)
{
	uint8_t data;	
	ENABLE_CHIP();
     cb2:	95 b1       	in	r25, 0x05	; 5
     cb4:	9b 7f       	andi	r25, 0xFB	; 251
     cb6:	95 b9       	out	0x05, r25	; 5
	spi_transmit(((reg<<1)&0x7E)|0x80);
     cb8:	90 e0       	ldi	r25, 0x00	; 0
     cba:	88 0f       	add	r24, r24
     cbc:	99 1f       	adc	r25, r25
     cbe:	8e 77       	andi	r24, 0x7E	; 126
     cc0:	80 68       	ori	r24, 0x80	; 128
     cc2:	0e 94 0c 08 	call	0x1018	; 0x1018 <spi_transmit>
	data = spi_transmit(0x00);
     cc6:	80 e0       	ldi	r24, 0x00	; 0
     cc8:	0e 94 0c 08 	call	0x1018	; 0x1018 <spi_transmit>
	DISABLE_CHIP();
     ccc:	95 b1       	in	r25, 0x05	; 5
     cce:	94 60       	ori	r25, 0x04	; 4
     cd0:	95 b9       	out	0x05, r25	; 5
	return data;
}
     cd2:	08 95       	ret

00000cd4 <mfrc522_reset>:

void mfrc522_reset()
{
	mfrc522_write(CommandReg,SoftReset_CMD);
     cd4:	6f e0       	ldi	r22, 0x0F	; 15
     cd6:	81 e0       	ldi	r24, 0x01	; 1
     cd8:	0e 94 46 06 	call	0xc8c	; 0xc8c <mfrc522_write>
     cdc:	08 95       	ret

00000cde <mfrc522_init>:


void mfrc522_init()
{
	uint8_t byte;
	mfrc522_reset();
     cde:	0e 94 6a 06 	call	0xcd4	; 0xcd4 <mfrc522_reset>
	
	mfrc522_write(TModeReg, 0x8D);
     ce2:	6d e8       	ldi	r22, 0x8D	; 141
     ce4:	8a e2       	ldi	r24, 0x2A	; 42
     ce6:	0e 94 46 06 	call	0xc8c	; 0xc8c <mfrc522_write>
    mfrc522_write(TPrescalerReg, 0x3E);
     cea:	6e e3       	ldi	r22, 0x3E	; 62
     cec:	8b e2       	ldi	r24, 0x2B	; 43
     cee:	0e 94 46 06 	call	0xc8c	; 0xc8c <mfrc522_write>
    mfrc522_write(TReloadReg_1, 30);   
     cf2:	6e e1       	ldi	r22, 0x1E	; 30
     cf4:	8c e2       	ldi	r24, 0x2C	; 44
     cf6:	0e 94 46 06 	call	0xc8c	; 0xc8c <mfrc522_write>
    mfrc522_write(TReloadReg_2, 0);	
     cfa:	60 e0       	ldi	r22, 0x00	; 0
     cfc:	8d e2       	ldi	r24, 0x2D	; 45
     cfe:	0e 94 46 06 	call	0xc8c	; 0xc8c <mfrc522_write>
	mfrc522_write(TxASKReg, 0x40);	
     d02:	60 e4       	ldi	r22, 0x40	; 64
     d04:	85 e1       	ldi	r24, 0x15	; 21
     d06:	0e 94 46 06 	call	0xc8c	; 0xc8c <mfrc522_write>
	mfrc522_write(ModeReg, 0x3D);
     d0a:	6d e3       	ldi	r22, 0x3D	; 61
     d0c:	81 e1       	ldi	r24, 0x11	; 17
     d0e:	0e 94 46 06 	call	0xc8c	; 0xc8c <mfrc522_write>
	
	byte = mfrc522_read(TxControlReg);
     d12:	84 e1       	ldi	r24, 0x14	; 20
     d14:	0e 94 59 06 	call	0xcb2	; 0xcb2 <mfrc522_read>
	if(!(byte&0x03))
     d18:	98 2f       	mov	r25, r24
     d1a:	93 70       	andi	r25, 0x03	; 3
     d1c:	29 f4       	brne	.+10     	; 0xd28 <mfrc522_init+0x4a>
	{
		mfrc522_write(TxControlReg,byte|0x03);
     d1e:	68 2f       	mov	r22, r24
     d20:	63 60       	ori	r22, 0x03	; 3
     d22:	84 e1       	ldi	r24, 0x14	; 20
     d24:	0e 94 46 06 	call	0xc8c	; 0xc8c <mfrc522_write>
     d28:	08 95       	ret

00000d2a <mfrc522_to_card>:
   
	return status;
}

uint8_t mfrc522_to_card(uint8_t cmd, uint8_t *send_data, uint8_t send_data_len, uint8_t *back_data, uint32_t *back_data_len)
{
     d2a:	4f 92       	push	r4
     d2c:	5f 92       	push	r5
     d2e:	6f 92       	push	r6
     d30:	7f 92       	push	r7
     d32:	8f 92       	push	r8
     d34:	9f 92       	push	r9
     d36:	af 92       	push	r10
     d38:	bf 92       	push	r11
     d3a:	cf 92       	push	r12
     d3c:	df 92       	push	r13
     d3e:	ef 92       	push	r14
     d40:	ff 92       	push	r15
     d42:	0f 93       	push	r16
     d44:	1f 93       	push	r17
     d46:	cf 93       	push	r28
     d48:	df 93       	push	r29
     d4a:	d8 2f       	mov	r29, r24
     d4c:	7b 01       	movw	r14, r22
     d4e:	c4 2f       	mov	r28, r20
     d50:	59 01       	movw	r10, r18
    uint8_t lastBits;
    uint8_t n;
    uint8_t	tmp;
    uint32_t i;

    switch (cmd)
     d52:	8c 30       	cpi	r24, 0x0C	; 12
     d54:	29 f0       	breq	.+10     	; 0xd60 <mfrc522_to_card+0x36>
     d56:	8e 30       	cpi	r24, 0x0E	; 14
     d58:	61 f0       	breq	.+24     	; 0xd72 <mfrc522_to_card+0x48>

uint8_t mfrc522_to_card(uint8_t cmd, uint8_t *send_data, uint8_t send_data_len, uint8_t *back_data, uint32_t *back_data_len)
{
	uint8_t status = ERROR;
    uint8_t irqEn = 0x00;
    uint8_t waitIRq = 0x00;
     d5a:	91 2c       	mov	r9, r1
}

uint8_t mfrc522_to_card(uint8_t cmd, uint8_t *send_data, uint8_t send_data_len, uint8_t *back_data, uint32_t *back_data_len)
{
	uint8_t status = ERROR;
    uint8_t irqEn = 0x00;
     d5c:	81 2c       	mov	r8, r1
     d5e:	10 c0       	rjmp	.+32     	; 0xd80 <mfrc522_to_card+0x56>
			break;
		}
		case Transceive_CMD:	//Transmit FIFO data
		{
			irqEn = 0x77;
			waitIRq = 0x30;
     d60:	0f 2e       	mov	r0, r31
     d62:	f0 e3       	ldi	r31, 0x30	; 48
     d64:	9f 2e       	mov	r9, r31
     d66:	f0 2d       	mov	r31, r0
			waitIRq = 0x10;
			break;
		}
		case Transceive_CMD:	//Transmit FIFO data
		{
			irqEn = 0x77;
     d68:	0f 2e       	mov	r0, r31
     d6a:	f7 e7       	ldi	r31, 0x77	; 119
     d6c:	8f 2e       	mov	r8, r31
     d6e:	f0 2d       	mov	r31, r0
			waitIRq = 0x30;
			break;
     d70:	07 c0       	rjmp	.+14     	; 0xd80 <mfrc522_to_card+0x56>
    switch (cmd)
    {
        case MFAuthent_CMD:		//Certification cards close
		{
			irqEn = 0x12;
			waitIRq = 0x10;
     d72:	68 94       	set
     d74:	99 24       	eor	r9, r9
     d76:	94 f8       	bld	r9, 4

    switch (cmd)
    {
        case MFAuthent_CMD:		//Certification cards close
		{
			irqEn = 0x12;
     d78:	0f 2e       	mov	r0, r31
     d7a:	f2 e1       	ldi	r31, 0x12	; 18
     d7c:	8f 2e       	mov	r8, r31
     d7e:	f0 2d       	mov	r31, r0
		default:
			break;
    }
   
    //mfrc522_write(ComIEnReg, irqEn|0x80);	//Interrupt request
    n=mfrc522_read(ComIrqReg);
     d80:	84 e0       	ldi	r24, 0x04	; 4
     d82:	0e 94 59 06 	call	0xcb2	; 0xcb2 <mfrc522_read>
    mfrc522_write(ComIrqReg,n&(~0x80));//clear all interrupt bits
     d86:	68 2f       	mov	r22, r24
     d88:	6f 77       	andi	r22, 0x7F	; 127
     d8a:	84 e0       	ldi	r24, 0x04	; 4
     d8c:	0e 94 46 06 	call	0xc8c	; 0xc8c <mfrc522_write>
    n=mfrc522_read(FIFOLevelReg);
     d90:	8a e0       	ldi	r24, 0x0A	; 10
     d92:	0e 94 59 06 	call	0xcb2	; 0xcb2 <mfrc522_read>
    mfrc522_write(FIFOLevelReg,n|0x80);//flush FIFO data
     d96:	68 2f       	mov	r22, r24
     d98:	60 68       	ori	r22, 0x80	; 128
     d9a:	8a e0       	ldi	r24, 0x0A	; 10
     d9c:	0e 94 46 06 	call	0xc8c	; 0xc8c <mfrc522_write>
    
	mfrc522_write(CommandReg, Idle_CMD);	//NO action; Cancel the current cmd???
     da0:	60 e0       	ldi	r22, 0x00	; 0
     da2:	81 e0       	ldi	r24, 0x01	; 1
     da4:	0e 94 46 06 	call	0xc8c	; 0xc8c <mfrc522_write>

	//Writing data to the FIFO
    for (i=0; i<send_data_len; i++)
     da8:	41 2c       	mov	r4, r1
     daa:	51 2c       	mov	r5, r1
     dac:	32 01       	movw	r6, r4
     dae:	0c c0       	rjmp	.+24     	; 0xdc8 <mfrc522_to_card+0x9e>
    {   
		mfrc522_write(FIFODataReg, send_data[i]);    
     db0:	f7 01       	movw	r30, r14
     db2:	e4 0d       	add	r30, r4
     db4:	f5 1d       	adc	r31, r5
     db6:	60 81       	ld	r22, Z
     db8:	89 e0       	ldi	r24, 0x09	; 9
     dba:	0e 94 46 06 	call	0xc8c	; 0xc8c <mfrc522_write>
    mfrc522_write(FIFOLevelReg,n|0x80);//flush FIFO data
    
	mfrc522_write(CommandReg, Idle_CMD);	//NO action; Cancel the current cmd???

	//Writing data to the FIFO
    for (i=0; i<send_data_len; i++)
     dbe:	8f ef       	ldi	r24, 0xFF	; 255
     dc0:	48 1a       	sub	r4, r24
     dc2:	58 0a       	sbc	r5, r24
     dc4:	68 0a       	sbc	r6, r24
     dc6:	78 0a       	sbc	r7, r24
     dc8:	8c 2f       	mov	r24, r28
     dca:	90 e0       	ldi	r25, 0x00	; 0
     dcc:	a0 e0       	ldi	r26, 0x00	; 0
     dce:	b0 e0       	ldi	r27, 0x00	; 0
     dd0:	48 16       	cp	r4, r24
     dd2:	59 06       	cpc	r5, r25
     dd4:	6a 06       	cpc	r6, r26
     dd6:	7b 06       	cpc	r7, r27
     dd8:	58 f3       	brcs	.-42     	; 0xdb0 <mfrc522_to_card+0x86>
    {   
		mfrc522_write(FIFODataReg, send_data[i]);    
	}

	//Execute the cmd
	mfrc522_write(CommandReg, cmd);
     dda:	6d 2f       	mov	r22, r29
     ddc:	81 e0       	ldi	r24, 0x01	; 1
     dde:	0e 94 46 06 	call	0xc8c	; 0xc8c <mfrc522_write>
    if (cmd == Transceive_CMD)
     de2:	dc 30       	cpi	r29, 0x0C	; 12
     de4:	41 f4       	brne	.+16     	; 0xdf6 <mfrc522_to_card+0xcc>
    {    
		n=mfrc522_read(BitFramingReg);
     de6:	8d e0       	ldi	r24, 0x0D	; 13
     de8:	0e 94 59 06 	call	0xcb2	; 0xcb2 <mfrc522_read>
		mfrc522_write(BitFramingReg,n|0x80);  
     dec:	68 2f       	mov	r22, r24
     dee:	60 68       	ori	r22, 0x80	; 128
     df0:	8d e0       	ldi	r24, 0x0D	; 13
     df2:	0e 94 46 06 	call	0xc8c	; 0xc8c <mfrc522_write>
    mfrc522_write(FIFOLevelReg,n|0x80);//flush FIFO data
    
	mfrc522_write(CommandReg, Idle_CMD);	//NO action; Cancel the current cmd???

	//Writing data to the FIFO
    for (i=0; i<send_data_len; i++)
     df6:	0f 2e       	mov	r0, r31
     df8:	f0 ed       	ldi	r31, 0xD0	; 208
     dfa:	cf 2e       	mov	r12, r31
     dfc:	f7 e0       	ldi	r31, 0x07	; 7
     dfe:	df 2e       	mov	r13, r31
     e00:	e1 2c       	mov	r14, r1
     e02:	f1 2c       	mov	r15, r1
     e04:	f0 2d       	mov	r31, r0
	i = 2000;	//i according to the clock frequency adjustment, the operator M1 card maximum waiting time 25ms???
    do 
    {
		//CommIrqReg[7..0]
		//Set1 TxIRq RxIRq IdleIRq HiAlerIRq LoAlertIRq ErrIRq TimerIRq
        n = mfrc522_read(ComIrqReg);
     e06:	84 e0       	ldi	r24, 0x04	; 4
     e08:	0e 94 59 06 	call	0xcb2	; 0xcb2 <mfrc522_read>
     e0c:	c8 2f       	mov	r28, r24
        i--;
     e0e:	e1 e0       	ldi	r30, 0x01	; 1
     e10:	ce 1a       	sub	r12, r30
     e12:	d1 08       	sbc	r13, r1
     e14:	e1 08       	sbc	r14, r1
     e16:	f1 08       	sbc	r15, r1
    }
    while ((i!=0) && !(n&0x01) && !(n&waitIRq));
     e18:	29 f0       	breq	.+10     	; 0xe24 <mfrc522_to_card+0xfa>
     e1a:	80 fd       	sbrc	r24, 0
     e1c:	03 c0       	rjmp	.+6      	; 0xe24 <mfrc522_to_card+0xfa>
     e1e:	89 2d       	mov	r24, r9
     e20:	8c 23       	and	r24, r28
     e22:	89 f3       	breq	.-30     	; 0xe06 <mfrc522_to_card+0xdc>

	tmp=mfrc522_read(BitFramingReg);
     e24:	8d e0       	ldi	r24, 0x0D	; 13
     e26:	0e 94 59 06 	call	0xcb2	; 0xcb2 <mfrc522_read>
	mfrc522_write(BitFramingReg,tmp&(~0x80));
     e2a:	68 2f       	mov	r22, r24
     e2c:	6f 77       	andi	r22, 0x7F	; 127
     e2e:	8d e0       	ldi	r24, 0x0D	; 13
     e30:	0e 94 46 06 	call	0xc8c	; 0xc8c <mfrc522_write>
	
    if (i != 0)
     e34:	cd 28       	or	r12, r13
     e36:	ce 28       	or	r12, r14
     e38:	cf 28       	or	r12, r15
     e3a:	09 f4       	brne	.+2      	; 0xe3e <mfrc522_to_card+0x114>
     e3c:	60 c0       	rjmp	.+192    	; 0xefe <mfrc522_to_card+0x1d4>
    {    
        if(!(mfrc522_read(ErrorReg) & 0x1B))	//BufferOvfl Collerr CRCErr ProtecolErr
     e3e:	86 e0       	ldi	r24, 0x06	; 6
     e40:	0e 94 59 06 	call	0xcb2	; 0xcb2 <mfrc522_read>
     e44:	8b 71       	andi	r24, 0x1B	; 27
     e46:	09 f0       	breq	.+2      	; 0xe4a <mfrc522_to_card+0x120>
     e48:	5c c0       	rjmp	.+184    	; 0xf02 <mfrc522_to_card+0x1d8>
        {
            status = CARD_FOUND;
            if (n & irqEn & 0x01)
     e4a:	c8 21       	and	r28, r8
     e4c:	c0 fd       	sbrc	r28, 0
     e4e:	02 c0       	rjmp	.+4      	; 0xe54 <mfrc522_to_card+0x12a>
	
    if (i != 0)
    {    
        if(!(mfrc522_read(ErrorReg) & 0x1B))	//BufferOvfl Collerr CRCErr ProtecolErr
        {
            status = CARD_FOUND;
     e50:	c1 e0       	ldi	r28, 0x01	; 1
     e52:	01 c0       	rjmp	.+2      	; 0xe56 <mfrc522_to_card+0x12c>
            if (n & irqEn & 0x01)
            {   
				status = CARD_NOT_FOUND;			//??   
     e54:	c2 e0       	ldi	r28, 0x02	; 2
			}

            if (cmd == Transceive_CMD)
     e56:	dc 30       	cpi	r29, 0x0C	; 12
     e58:	09 f0       	breq	.+2      	; 0xe5c <mfrc522_to_card+0x132>
     e5a:	54 c0       	rjmp	.+168    	; 0xf04 <mfrc522_to_card+0x1da>
            {
               	n = mfrc522_read(FIFOLevelReg);
     e5c:	8a e0       	ldi	r24, 0x0A	; 10
     e5e:	0e 94 59 06 	call	0xcb2	; 0xcb2 <mfrc522_read>
     e62:	d8 2f       	mov	r29, r24
              	lastBits = mfrc522_read(ControlReg) & 0x07;
     e64:	8c e0       	ldi	r24, 0x0C	; 12
     e66:	0e 94 59 06 	call	0xcb2	; 0xcb2 <mfrc522_read>
     e6a:	28 2f       	mov	r18, r24
     e6c:	27 70       	andi	r18, 0x07	; 7
                if (lastBits)
     e6e:	a9 f0       	breq	.+42     	; 0xe9a <mfrc522_to_card+0x170>
                {   
					*back_data_len = (n-1)*8 + lastBits;   
     e70:	8d 2f       	mov	r24, r29
     e72:	90 e0       	ldi	r25, 0x00	; 0
     e74:	01 97       	sbiw	r24, 0x01	; 1
     e76:	88 0f       	add	r24, r24
     e78:	99 1f       	adc	r25, r25
     e7a:	88 0f       	add	r24, r24
     e7c:	99 1f       	adc	r25, r25
     e7e:	88 0f       	add	r24, r24
     e80:	99 1f       	adc	r25, r25
     e82:	82 0f       	add	r24, r18
     e84:	91 1d       	adc	r25, r1
     e86:	09 2e       	mov	r0, r25
     e88:	00 0c       	add	r0, r0
     e8a:	aa 0b       	sbc	r26, r26
     e8c:	bb 0b       	sbc	r27, r27
     e8e:	f8 01       	movw	r30, r16
     e90:	80 83       	st	Z, r24
     e92:	91 83       	std	Z+1, r25	; 0x01
     e94:	a2 83       	std	Z+2, r26	; 0x02
     e96:	b3 83       	std	Z+3, r27	; 0x03
     e98:	11 c0       	rjmp	.+34     	; 0xebc <mfrc522_to_card+0x192>
				}
                else
                {   
					*back_data_len = n*8;   
     e9a:	8d 2f       	mov	r24, r29
     e9c:	90 e0       	ldi	r25, 0x00	; 0
     e9e:	88 0f       	add	r24, r24
     ea0:	99 1f       	adc	r25, r25
     ea2:	88 0f       	add	r24, r24
     ea4:	99 1f       	adc	r25, r25
     ea6:	88 0f       	add	r24, r24
     ea8:	99 1f       	adc	r25, r25
     eaa:	09 2e       	mov	r0, r25
     eac:	00 0c       	add	r0, r0
     eae:	aa 0b       	sbc	r26, r26
     eb0:	bb 0b       	sbc	r27, r27
     eb2:	f8 01       	movw	r30, r16
     eb4:	80 83       	st	Z, r24
     eb6:	91 83       	std	Z+1, r25	; 0x01
     eb8:	a2 83       	std	Z+2, r26	; 0x02
     eba:	b3 83       	std	Z+3, r27	; 0x03
				}

                if (n == 0)
     ebc:	d1 11       	cpse	r29, r1
     ebe:	01 c0       	rjmp	.+2      	; 0xec2 <mfrc522_to_card+0x198>
                {   
					n = 1;    
     ec0:	d1 e0       	ldi	r29, 0x01	; 1
				}
                if (n > MAX_LEN)
     ec2:	d1 31       	cpi	r29, 0x11	; 17
     ec4:	08 f0       	brcs	.+2      	; 0xec8 <mfrc522_to_card+0x19e>
                {   
					n = MAX_LEN;   
     ec6:	d0 e1       	ldi	r29, 0x10	; 16
				}
				
				//Reading the received data in FIFO
                for (i=0; i<n; i++)
     ec8:	c1 2c       	mov	r12, r1
     eca:	d1 2c       	mov	r13, r1
     ecc:	76 01       	movw	r14, r12
     ece:	0d c0       	rjmp	.+26     	; 0xeea <mfrc522_to_card+0x1c0>
                {   
					back_data[i] = mfrc522_read(FIFODataReg);    
     ed0:	85 01       	movw	r16, r10
     ed2:	0c 0d       	add	r16, r12
     ed4:	1d 1d       	adc	r17, r13
     ed6:	89 e0       	ldi	r24, 0x09	; 9
     ed8:	0e 94 59 06 	call	0xcb2	; 0xcb2 <mfrc522_read>
     edc:	f8 01       	movw	r30, r16
     ede:	80 83       	st	Z, r24
                {   
					n = MAX_LEN;   
				}
				
				//Reading the received data in FIFO
                for (i=0; i<n; i++)
     ee0:	ff ef       	ldi	r31, 0xFF	; 255
     ee2:	cf 1a       	sub	r12, r31
     ee4:	df 0a       	sbc	r13, r31
     ee6:	ef 0a       	sbc	r14, r31
     ee8:	ff 0a       	sbc	r15, r31
     eea:	8d 2f       	mov	r24, r29
     eec:	90 e0       	ldi	r25, 0x00	; 0
     eee:	a0 e0       	ldi	r26, 0x00	; 0
     ef0:	b0 e0       	ldi	r27, 0x00	; 0
     ef2:	c8 16       	cp	r12, r24
     ef4:	d9 06       	cpc	r13, r25
     ef6:	ea 06       	cpc	r14, r26
     ef8:	fb 06       	cpc	r15, r27
     efa:	50 f3       	brcs	.-44     	; 0xed0 <mfrc522_to_card+0x1a6>
     efc:	03 c0       	rjmp	.+6      	; 0xf04 <mfrc522_to_card+0x1da>
	return status;
}

uint8_t mfrc522_to_card(uint8_t cmd, uint8_t *send_data, uint8_t send_data_len, uint8_t *back_data, uint32_t *back_data_len)
{
	uint8_t status = ERROR;
     efe:	c3 e0       	ldi	r28, 0x03	; 3
     f00:	01 c0       	rjmp	.+2      	; 0xf04 <mfrc522_to_card+0x1da>
				}
            }
        }
        else
        {   
			status = ERROR;  
     f02:	c3 e0       	ldi	r28, 0x03	; 3
	
    //SetBitMask(ControlReg,0x80);           //timer stops
    //mfrc522_write(cmdReg, PCD_IDLE); 

    return status;
}
     f04:	8c 2f       	mov	r24, r28
     f06:	df 91       	pop	r29
     f08:	cf 91       	pop	r28
     f0a:	1f 91       	pop	r17
     f0c:	0f 91       	pop	r16
     f0e:	ff 90       	pop	r15
     f10:	ef 90       	pop	r14
     f12:	df 90       	pop	r13
     f14:	cf 90       	pop	r12
     f16:	bf 90       	pop	r11
     f18:	af 90       	pop	r10
     f1a:	9f 90       	pop	r9
     f1c:	8f 90       	pop	r8
     f1e:	7f 90       	pop	r7
     f20:	6f 90       	pop	r6
     f22:	5f 90       	pop	r5
     f24:	4f 90       	pop	r4
     f26:	08 95       	ret

00000f28 <mfrc522_request>:
{
	mfrc522_write(CommandReg,SoftReset_CMD);
}

uint8_t	mfrc522_request(uint8_t req_mode, uint8_t * tag_type)
{
     f28:	ef 92       	push	r14
     f2a:	ff 92       	push	r15
     f2c:	0f 93       	push	r16
     f2e:	1f 93       	push	r17
     f30:	cf 93       	push	r28
     f32:	df 93       	push	r29
     f34:	00 d0       	rcall	.+0      	; 0xf36 <mfrc522_request+0xe>
     f36:	00 d0       	rcall	.+0      	; 0xf38 <mfrc522_request+0x10>
     f38:	cd b7       	in	r28, 0x3d	; 61
     f3a:	de b7       	in	r29, 0x3e	; 62
     f3c:	18 2f       	mov	r17, r24
     f3e:	7b 01       	movw	r14, r22
	uint8_t  status;  
	uint32_t backBits;//The received data bits

	mfrc522_write(BitFramingReg, 0x07);//TxLastBists = BitFramingReg[2..0]	???
     f40:	67 e0       	ldi	r22, 0x07	; 7
     f42:	8d e0       	ldi	r24, 0x0D	; 13
     f44:	0e 94 46 06 	call	0xc8c	; 0xc8c <mfrc522_write>
	
	tag_type[0] = req_mode;
     f48:	f7 01       	movw	r30, r14
     f4a:	10 83       	st	Z, r17
	status = mfrc522_to_card(Transceive_CMD, tag_type, 1, tag_type, &backBits);
     f4c:	8e 01       	movw	r16, r28
     f4e:	0f 5f       	subi	r16, 0xFF	; 255
     f50:	1f 4f       	sbci	r17, 0xFF	; 255
     f52:	97 01       	movw	r18, r14
     f54:	41 e0       	ldi	r20, 0x01	; 1
     f56:	b7 01       	movw	r22, r14
     f58:	8c e0       	ldi	r24, 0x0C	; 12
     f5a:	0e 94 95 06 	call	0xd2a	; 0xd2a <mfrc522_to_card>

	if ((status != CARD_FOUND) || (backBits != 0x10))
     f5e:	81 30       	cpi	r24, 0x01	; 1
     f60:	51 f4       	brne	.+20     	; 0xf76 <mfrc522_request+0x4e>
     f62:	49 81       	ldd	r20, Y+1	; 0x01
     f64:	5a 81       	ldd	r21, Y+2	; 0x02
     f66:	6b 81       	ldd	r22, Y+3	; 0x03
     f68:	7c 81       	ldd	r23, Y+4	; 0x04
     f6a:	40 31       	cpi	r20, 0x10	; 16
     f6c:	51 05       	cpc	r21, r1
     f6e:	61 05       	cpc	r22, r1
     f70:	71 05       	cpc	r23, r1
     f72:	19 f4       	brne	.+6      	; 0xf7a <mfrc522_request+0x52>
     f74:	03 c0       	rjmp	.+6      	; 0xf7c <mfrc522_request+0x54>
	{    
		status = ERROR;
     f76:	83 e0       	ldi	r24, 0x03	; 3
     f78:	01 c0       	rjmp	.+2      	; 0xf7c <mfrc522_request+0x54>
     f7a:	83 e0       	ldi	r24, 0x03	; 3
	}
   
	return status;
}
     f7c:	0f 90       	pop	r0
     f7e:	0f 90       	pop	r0
     f80:	0f 90       	pop	r0
     f82:	0f 90       	pop	r0
     f84:	df 91       	pop	r29
     f86:	cf 91       	pop	r28
     f88:	1f 91       	pop	r17
     f8a:	0f 91       	pop	r16
     f8c:	ff 90       	pop	r15
     f8e:	ef 90       	pop	r14
     f90:	08 95       	ret

00000f92 <mfrc522_get_card_serial>:
    return status;
}


uint8_t mfrc522_get_card_serial(uint8_t * serial_out)
{
     f92:	ef 92       	push	r14
     f94:	ff 92       	push	r15
     f96:	0f 93       	push	r16
     f98:	1f 93       	push	r17
     f9a:	cf 93       	push	r28
     f9c:	df 93       	push	r29
     f9e:	00 d0       	rcall	.+0      	; 0xfa0 <mfrc522_get_card_serial+0xe>
     fa0:	00 d0       	rcall	.+0      	; 0xfa2 <mfrc522_get_card_serial+0x10>
     fa2:	cd b7       	in	r28, 0x3d	; 61
     fa4:	de b7       	in	r29, 0x3e	; 62
     fa6:	7c 01       	movw	r14, r24
	uint8_t status;
    uint8_t i;
	uint8_t serNumCheck=0;
    uint32_t unLen;
    
	mfrc522_write(BitFramingReg, 0x00);		//TxLastBists = BitFramingReg[2..0]
     fa8:	60 e0       	ldi	r22, 0x00	; 0
     faa:	8d e0       	ldi	r24, 0x0D	; 13
     fac:	0e 94 46 06 	call	0xc8c	; 0xc8c <mfrc522_write>
 
    serial_out[0] = PICC_ANTICOLL;
     fb0:	83 e9       	ldi	r24, 0x93	; 147
     fb2:	f7 01       	movw	r30, r14
     fb4:	80 83       	st	Z, r24
    serial_out[1] = 0x20;
     fb6:	80 e2       	ldi	r24, 0x20	; 32
     fb8:	81 83       	std	Z+1, r24	; 0x01
    status = mfrc522_to_card(Transceive_CMD, serial_out, 2, serial_out, &unLen);
     fba:	8e 01       	movw	r16, r28
     fbc:	0f 5f       	subi	r16, 0xFF	; 255
     fbe:	1f 4f       	sbci	r17, 0xFF	; 255
     fc0:	97 01       	movw	r18, r14
     fc2:	42 e0       	ldi	r20, 0x02	; 2
     fc4:	b7 01       	movw	r22, r14
     fc6:	8c e0       	ldi	r24, 0x0C	; 12
     fc8:	0e 94 95 06 	call	0xd2a	; 0xd2a <mfrc522_to_card>

    if (status == CARD_FOUND)
     fcc:	81 30       	cpi	r24, 0x01	; 1
     fce:	91 f4       	brne	.+36     	; 0xff4 <mfrc522_get_card_serial+0x62>
     fd0:	07 c0       	rjmp	.+14     	; 0xfe0 <mfrc522_get_card_serial+0x4e>
	{
		//Check card serial number
		for (i=0; i<4; i++)
		{   
		 	serNumCheck ^= serial_out[i];
     fd2:	f7 01       	movw	r30, r14
     fd4:	e9 0f       	add	r30, r25
     fd6:	f1 1d       	adc	r31, r1
     fd8:	30 81       	ld	r19, Z
     fda:	23 27       	eor	r18, r19
    status = mfrc522_to_card(Transceive_CMD, serial_out, 2, serial_out, &unLen);

    if (status == CARD_FOUND)
	{
		//Check card serial number
		for (i=0; i<4; i++)
     fdc:	9f 5f       	subi	r25, 0xFF	; 255
     fde:	02 c0       	rjmp	.+4      	; 0xfe4 <mfrc522_get_card_serial+0x52>
     fe0:	20 e0       	ldi	r18, 0x00	; 0
     fe2:	90 e0       	ldi	r25, 0x00	; 0
     fe4:	94 30       	cpi	r25, 0x04	; 4
     fe6:	a8 f3       	brcs	.-22     	; 0xfd2 <mfrc522_get_card_serial+0x40>
		{   
		 	serNumCheck ^= serial_out[i];
		}
		if (serNumCheck != serial_out[i])
     fe8:	f7 01       	movw	r30, r14
     fea:	e9 0f       	add	r30, r25
     fec:	f1 1d       	adc	r31, r1
     fee:	90 81       	ld	r25, Z
     ff0:	29 13       	cpse	r18, r25
		{   
			status = ERROR;    
     ff2:	83 e0       	ldi	r24, 0x03	; 3
		}
    }
    return status;
}
     ff4:	0f 90       	pop	r0
     ff6:	0f 90       	pop	r0
     ff8:	0f 90       	pop	r0
     ffa:	0f 90       	pop	r0
     ffc:	df 91       	pop	r29
     ffe:	cf 91       	pop	r28
    1000:	1f 91       	pop	r17
    1002:	0f 91       	pop	r16
    1004:	ff 90       	pop	r15
    1006:	ef 90       	pop	r14
    1008:	08 95       	ret

0000100a <spi_init>:
#include <spi.h>

#if SPI_CONFIG_AS_MASTER
void spi_init()
{
	SPI_DDR |= (1<<SPI_MOSI)|(1<<SPI_SCK)|(1<<SPI_SS);
    100a:	84 b1       	in	r24, 0x04	; 4
    100c:	8c 62       	ori	r24, 0x2C	; 44
    100e:	84 b9       	out	0x04, r24	; 4
	SPCR |= (1<<SPE)|(1<<MSTR)|(1<<SPR0);//prescaler 16
    1010:	8c b5       	in	r24, 0x2c	; 44
    1012:	81 65       	ori	r24, 0x51	; 81
    1014:	8c bd       	out	0x2c, r24	; 44
    1016:	08 95       	ret

00001018 <spi_transmit>:
}


uint8_t spi_transmit(uint8_t data)
{
	SPDR = data;
    1018:	8e bd       	out	0x2e, r24	; 46
	while(!(SPSR & (1<<SPIF)));
    101a:	0d b4       	in	r0, 0x2d	; 45
    101c:	07 fe       	sbrs	r0, 7
    101e:	fd cf       	rjmp	.-6      	; 0x101a <spi_transmit+0x2>
	
	return SPDR;
    1020:	8e b5       	in	r24, 0x2e	; 46
}
    1022:	08 95       	ret

00001024 <USART_init>:
unsigned char USART_receive(void){

	while(!(UCSR0A & (1<<RXC0)));
	return UDR0;

}
    1024:	10 92 c5 00 	sts	0x00C5, r1	; 0x8000c5 <__TEXT_REGION_LENGTH__+0x7f80c5>
    1028:	80 93 c4 00 	sts	0x00C4, r24	; 0x8000c4 <__TEXT_REGION_LENGTH__+0x7f80c4>
    102c:	88 e9       	ldi	r24, 0x98	; 152
    102e:	80 93 c1 00 	sts	0x00C1, r24	; 0x8000c1 <__TEXT_REGION_LENGTH__+0x7f80c1>
    1032:	86 e0       	ldi	r24, 0x06	; 6
    1034:	80 93 c2 00 	sts	0x00C2, r24	; 0x8000c2 <__TEXT_REGION_LENGTH__+0x7f80c2>
    1038:	8a b1       	in	r24, 0x0a	; 10
    103a:	82 60       	ori	r24, 0x02	; 2
    103c:	8a b9       	out	0x0a, r24	; 10
    103e:	8a b1       	in	r24, 0x0a	; 10
    1040:	8e 7f       	andi	r24, 0xFE	; 254
    1042:	8a b9       	out	0x0a, r24	; 10
    1044:	08 95       	ret

00001046 <USART_send>:
    1046:	90 91 c0 00 	lds	r25, 0x00C0	; 0x8000c0 <__TEXT_REGION_LENGTH__+0x7f80c0>
    104a:	95 ff       	sbrs	r25, 5
    104c:	fc cf       	rjmp	.-8      	; 0x1046 <USART_send>
    104e:	80 93 c6 00 	sts	0x00C6, r24	; 0x8000c6 <__TEXT_REGION_LENGTH__+0x7f80c6>
    1052:	08 95       	ret

00001054 <USART_putstring>:

void USART_putstring(char* StringPtr){
    1054:	cf 93       	push	r28
    1056:	df 93       	push	r29
    1058:	ec 01       	movw	r28, r24

	while(*StringPtr != 0x00){    //Aca se chequea si no hay mas caracteres para enviar, esto //se hace chequeando el caracter actual y viendo si es diferente de NULL
    105a:	03 c0       	rjmp	.+6      	; 0x1062 <USART_putstring+0xe>
		USART_send(*StringPtr);    //usando esta simple funcion envio un caracter por vez
    105c:	0e 94 23 08 	call	0x1046	; 0x1046 <USART_send>
	StringPtr++;}        //incremento el puntero asi puedo leer el proximo caracter
    1060:	21 96       	adiw	r28, 0x01	; 1

}

void USART_putstring(char* StringPtr){

	while(*StringPtr != 0x00){    //Aca se chequea si no hay mas caracteres para enviar, esto //se hace chequeando el caracter actual y viendo si es diferente de NULL
    1062:	88 81       	ld	r24, Y
    1064:	81 11       	cpse	r24, r1
    1066:	fa cf       	rjmp	.-12     	; 0x105c <USART_putstring+0x8>
		USART_send(*StringPtr);    //usando esta simple funcion envio un caracter por vez
	StringPtr++;}        //incremento el puntero asi puedo leer el proximo caracter
}
    1068:	df 91       	pop	r29
    106a:	cf 91       	pop	r28
    106c:	08 95       	ret

0000106e <__vector_5>:
//#define PASSWORD			"barcala2023"
#define channel "Tarjetas"
#define token "token_WlqwfZqzycNiPoZK"


ISR(PCINT2_vect){
    106e:	1f 92       	push	r1
    1070:	0f 92       	push	r0
    1072:	0f b6       	in	r0, 0x3f	; 63
    1074:	0f 92       	push	r0
    1076:	11 24       	eor	r1, r1
    1078:	2f 93       	push	r18
    107a:	3f 93       	push	r19
    107c:	4f 93       	push	r20
    107e:	5f 93       	push	r21
    1080:	6f 93       	push	r22
    1082:	7f 93       	push	r23
    1084:	8f 93       	push	r24
    1086:	9f 93       	push	r25
    1088:	af 93       	push	r26
    108a:	bf 93       	push	r27
    108c:	ef 93       	push	r30
    108e:	ff 93       	push	r31
	#else
		//round up by default
		__ticks_dc = (uint32_t)(ceil(fabs(__tmp)));
	#endif

	__builtin_avr_delay_cycles(__ticks_dc);
    1090:	2f ef       	ldi	r18, 0xFF	; 255
    1092:	83 ec       	ldi	r24, 0xC3	; 195
    1094:	99 e0       	ldi	r25, 0x09	; 9
    1096:	21 50       	subi	r18, 0x01	; 1
    1098:	80 40       	sbci	r24, 0x00	; 0
    109a:	90 40       	sbci	r25, 0x00	; 0
    109c:	e1 f7       	brne	.-8      	; 0x1096 <__vector_5+0x28>
    109e:	00 c0       	rjmp	.+0      	; 0x10a0 <__vector_5+0x32>
    10a0:	00 00       	nop
	_delay_ms(200);
	if(!(PIND & (1 << 3))){
    10a2:	4b 99       	sbic	0x09, 3	; 9
    10a4:	08 c0       	rjmp	.+16     	; 0x10b6 <__vector_5+0x48>
	 PORTD ^= (1<<7); 
    10a6:	8b b1       	in	r24, 0x0b	; 11
    10a8:	80 58       	subi	r24, 0x80	; 128
    10aa:	8b b9       	out	0x0b, r24	; 11
	USART_putstring("Boton apretado\r\n");
    10ac:	8a eb       	ldi	r24, 0xBA	; 186
    10ae:	95 e0       	ldi	r25, 0x05	; 5
    10b0:	0e 94 2a 08 	call	0x1054	; 0x1054 <USART_putstring>
    10b4:	03 c0       	rjmp	.+6      	; 0x10bc <__vector_5+0x4e>
	}
	else
	{
		PORTD ^= (1<<7); 
    10b6:	8b b1       	in	r24, 0x0b	; 11
    10b8:	80 58       	subi	r24, 0x80	; 128
    10ba:	8b b9       	out	0x0b, r24	; 11
	}

}
    10bc:	ff 91       	pop	r31
    10be:	ef 91       	pop	r30
    10c0:	bf 91       	pop	r27
    10c2:	af 91       	pop	r26
    10c4:	9f 91       	pop	r25
    10c6:	8f 91       	pop	r24
    10c8:	7f 91       	pop	r23
    10ca:	6f 91       	pop	r22
    10cc:	5f 91       	pop	r21
    10ce:	4f 91       	pop	r20
    10d0:	3f 91       	pop	r19
    10d2:	2f 91       	pop	r18
    10d4:	0f 90       	pop	r0
    10d6:	0f be       	out	0x3f, r0	; 63
    10d8:	0f 90       	pop	r0
    10da:	1f 90       	pop	r1
    10dc:	18 95       	reti

000010de <timer_init>:


void timer_init()
{
	
	TCCR1B = (1<< CS10) | (1<<CS12);
    10de:	85 e0       	ldi	r24, 0x05	; 5
    10e0:	80 93 81 00 	sts	0x0081, r24	; 0x800081 <__TEXT_REGION_LENGTH__+0x7f8081>
	TCCR1A = 0x00;
    10e4:	10 92 80 00 	sts	0x0080, r1	; 0x800080 <__TEXT_REGION_LENGTH__+0x7f8080>
	TIMSK1 = (1<<TOIE1);
    10e8:	81 e0       	ldi	r24, 0x01	; 1
    10ea:	80 93 6f 00 	sts	0x006F, r24	; 0x80006f <__TEXT_REGION_LENGTH__+0x7f806f>
    10ee:	08 95       	ret

000010f0 <__vector_13>:
	
}


ISR(TIMER1_OVF_vect)
{
    10f0:	1f 92       	push	r1
    10f2:	0f 92       	push	r0
    10f4:	0f b6       	in	r0, 0x3f	; 63
    10f6:	0f 92       	push	r0
    10f8:	11 24       	eor	r1, r1
    10fa:	2f 93       	push	r18
    10fc:	3f 93       	push	r19
    10fe:	4f 93       	push	r20
    1100:	5f 93       	push	r21
    1102:	6f 93       	push	r22
    1104:	7f 93       	push	r23
    1106:	8f 93       	push	r24
    1108:	9f 93       	push	r25
    110a:	af 93       	push	r26
    110c:	bf 93       	push	r27
    110e:	ef 93       	push	r30
    1110:	ff 93       	push	r31
	if(prenderled){
    1112:	80 91 bc 06 	lds	r24, 0x06BC	; 0x8006bc <prenderled>
    1116:	88 23       	and	r24, r24
    1118:	49 f0       	breq	.+18     	; 0x112c <__vector_13+0x3c>
	 PORTD &= ~(1<<7); // apaga pin 7
    111a:	8b b1       	in	r24, 0x0b	; 11
    111c:	8f 77       	andi	r24, 0x7F	; 127
    111e:	8b b9       	out	0x0b, r24	; 11
	 prenderled=0;
    1120:	10 92 bc 06 	sts	0x06BC, r1	; 0x8006bc <prenderled>
	 USART_putstring("Timer activo");
    1124:	8b ec       	ldi	r24, 0xCB	; 203
    1126:	95 e0       	ldi	r25, 0x05	; 5
    1128:	0e 94 2a 08 	call	0x1054	; 0x1054 <USART_putstring>
	}
}
    112c:	ff 91       	pop	r31
    112e:	ef 91       	pop	r30
    1130:	bf 91       	pop	r27
    1132:	af 91       	pop	r26
    1134:	9f 91       	pop	r25
    1136:	8f 91       	pop	r24
    1138:	7f 91       	pop	r23
    113a:	6f 91       	pop	r22
    113c:	5f 91       	pop	r21
    113e:	4f 91       	pop	r20
    1140:	3f 91       	pop	r19
    1142:	2f 91       	pop	r18
    1144:	0f 90       	pop	r0
    1146:	0f be       	out	0x3f, r0	; 63
    1148:	0f 90       	pop	r0
    114a:	1f 90       	pop	r1
    114c:	18 95       	reti

0000114e <main>:


int main()
{
    114e:	cf 93       	push	r28
    1150:	df 93       	push	r29
    1152:	cd b7       	in	r28, 0x3d	; 61
    1154:	de b7       	in	r29, 0x3e	; 62
    1156:	ca 55       	subi	r28, 0x5A	; 90
    1158:	d2 40       	sbci	r29, 0x02	; 2
    115a:	0f b6       	in	r0, 0x3f	; 63
    115c:	f8 94       	cli
    115e:	de bf       	out	0x3e, r29	; 62
    1160:	0f be       	out	0x3f, r0	; 63
    1162:	cd bf       	out	0x3d, r28	; 61
	char strchrs[128];
	char clockstr[100];
	char strc;
	char * strcp;
	uint8_t card_match = 0;
	struct ds3231_clock_t clock = { 0 };
    1164:	fe 01       	movw	r30, r28
    1166:	eb 50       	subi	r30, 0x0B	; 11
    1168:	ff 4f       	sbci	r31, 0xFF	; 255
    116a:	88 e0       	ldi	r24, 0x08	; 8
    116c:	df 01       	movw	r26, r30
    116e:	1d 92       	st	X+, r1
    1170:	8a 95       	dec	r24
    1172:	e9 f7       	brne	.-6      	; 0x116e <main+0x20>
	
	spi_init();
    1174:	0e 94 05 08 	call	0x100a	; 0x100a <spi_init>
    1178:	bf ef       	ldi	r27, 0xFF	; 255
    117a:	23 ed       	ldi	r18, 0xD3	; 211
    117c:	80 e3       	ldi	r24, 0x30	; 48
    117e:	b1 50       	subi	r27, 0x01	; 1
    1180:	20 40       	sbci	r18, 0x00	; 0
    1182:	80 40       	sbci	r24, 0x00	; 0
    1184:	e1 f7       	brne	.-8      	; 0x117e <main+0x30>
    1186:	00 c0       	rjmp	.+0      	; 0x1188 <main+0x3a>
    1188:	00 00       	nop
		_delay_ms(1000);
	mfrc522_init();
    118a:	0e 94 6f 06 	call	0xcde	; 0xcde <mfrc522_init>
    118e:	9f ef       	ldi	r25, 0xFF	; 255
    1190:	a9 e6       	ldi	r26, 0x69	; 105
    1192:	b8 e1       	ldi	r27, 0x18	; 24
    1194:	91 50       	subi	r25, 0x01	; 1
    1196:	a0 40       	sbci	r26, 0x00	; 0
    1198:	b0 40       	sbci	r27, 0x00	; 0
    119a:	e1 f7       	brne	.-8      	; 0x1194 <main+0x46>
    119c:	00 c0       	rjmp	.+0      	; 0x119e <main+0x50>
    119e:	00 00       	nop
		_delay_ms(500);
	//USART_init(9600);
		//_delay_ms(500);
		
	if(rfid_alive()){
    11a0:	0e 94 77 05 	call	0xaee	; 0xaee <rfid_alive>
    11a4:	88 23       	and	r24, r24
    11a6:	79 f0       	breq	.+30     	; 0x11c6 <main+0x78>
		USART_putstring("Sensor detected\r\n");
    11a8:	88 ed       	ldi	r24, 0xD8	; 216
    11aa:	95 e0       	ldi	r25, 0x05	; 5
    11ac:	0e 94 2a 08 	call	0x1054	; 0x1054 <USART_putstring>
    11b0:	2f ef       	ldi	r18, 0xFF	; 255
    11b2:	89 e6       	ldi	r24, 0x69	; 105
    11b4:	98 e1       	ldi	r25, 0x18	; 24
    11b6:	21 50       	subi	r18, 0x01	; 1
    11b8:	80 40       	sbci	r24, 0x00	; 0
    11ba:	90 40       	sbci	r25, 0x00	; 0
    11bc:	e1 f7       	brne	.-8      	; 0x11b6 <main+0x68>
    11be:	00 c0       	rjmp	.+0      	; 0x11c0 <main+0x72>
    11c0:	00 00       	nop
		_delay_ms(500);
		rfid_config();
    11c2:	0e 94 4c 05 	call	0xa98	; 0xa98 <rfid_config>
	i2c_init();
	byte = ds3231_write_clock ( &clock ); // 0 = success
	sprintf(strchr,"Write = %d\r\n",byte);
	USART_putstring(strchr);
	*/
	i2c_init();
    11c6:	0e 94 9b 05 	call	0xb36	; 0xb36 <i2c_init>
	if (rtc_alive())
    11ca:	0e 94 86 05 	call	0xb0c	; 0xb0c <rtc_alive>
    11ce:	88 23       	and	r24, r24
    11d0:	21 f0       	breq	.+8      	; 0x11da <main+0x8c>
	{
		USART_putstring("RTC Conectado");
    11d2:	8a ee       	ldi	r24, 0xEA	; 234
    11d4:	95 e0       	ldi	r25, 0x05	; 5
    11d6:	0e 94 2a 08 	call	0x1054	; 0x1054 <USART_putstring>
	}
	
	DDRD |= (1<<7); // PD7 como output 
    11da:	8a b1       	in	r24, 0x0a	; 10
    11dc:	80 68       	ori	r24, 0x80	; 128
    11de:	8a b9       	out	0x0a, r24	; 10
	PORTD &= ~(1<<7); // inicia el pin 7 en 0
    11e0:	8b b1       	in	r24, 0x0b	; 11
    11e2:	8f 77       	andi	r24, 0x7F	; 127
    11e4:	8b b9       	out	0x0b, r24	; 11
	
	DDRD &= ~(1<<3); // PD2 como interrupcion
    11e6:	8a b1       	in	r24, 0x0a	; 10
    11e8:	87 7f       	andi	r24, 0xF7	; 247
    11ea:	8a b9       	out	0x0a, r24	; 10
	PORTD |= (1<<3); // inicia el pin 3 en 1
    11ec:	8b b1       	in	r24, 0x0b	; 11
    11ee:	88 60       	ori	r24, 0x08	; 8
    11f0:	8b b9       	out	0x0b, r24	; 11
	
	PCICR |= (1 << PCIE2);    // Habilita la interrupcin por cambio de estado en PCINT[23:16]
    11f2:	e8 e6       	ldi	r30, 0x68	; 104
    11f4:	f0 e0       	ldi	r31, 0x00	; 0
    11f6:	80 81       	ld	r24, Z
    11f8:	84 60       	ori	r24, 0x04	; 4
    11fa:	80 83       	st	Z, r24
	PCMSK2 |= (1 << PCINT19); // Habilita la interrupcin en el pin PD3 (PCINT19)
    11fc:	ed e6       	ldi	r30, 0x6D	; 109
    11fe:	f0 e0       	ldi	r31, 0x00	; 0
    1200:	80 81       	ld	r24, Z
    1202:	88 60       	ori	r24, 0x08	; 8
    1204:	80 83       	st	Z, r24
	 timer_init();
    1206:	0e 94 6f 08 	call	0x10de	; 0x10de <timer_init>
	sei(); 
    120a:	78 94       	sei
	///#ifdef SEND_DEMO
	uint8_t Sample = 0;
	///#endif
	///DDRB |= (1 << DDB5);

	USART_init(BAUD_PRESCALLER_115200);						/* Inicia la USART a 115200 baudios */
    120c:	88 e0       	ldi	r24, 0x08	; 8
    120e:	0e 94 12 08 	call	0x1024	; 0x1024 <USART_init>
	//sei();									/* inicia interrupciones globales */

	ESPXX_Begin(); //ESPXX_BEGIN ES SOLO PARA ENVIAR UN COMANDO at Y COMPROBAR CONEXIN CON EL ESP
    1212:	0e 94 b1 01 	call	0x362	; 0x362 <ESPXX_Begin>
	ESPXX_WIFIMode(3);/* 3 = Both (AP and STA) */
    1216:	83 e0       	ldi	r24, 0x03	; 3
    1218:	90 e0       	ldi	r25, 0x00	; 0
    121a:	0e 94 ca 01 	call	0x394	; 0x394 <ESPXX_WIFIMode>
	ESPXX_ConnectionMode(0);			/* 0 = Single; 1 = Multi */
    121e:	80 e0       	ldi	r24, 0x00	; 0
    1220:	90 e0       	ldi	r25, 0x00	; 0
    1222:	0e 94 7c 01 	call	0x2f8	; 0x2f8 <ESPXX_ConnectionMode>
	ESPXX_JoinAccessPoint(SSID, PASSWORD);
    1226:	68 ef       	ldi	r22, 0xF8	; 248
    1228:	75 e0       	ldi	r23, 0x05	; 5
    122a:	83 e0       	ldi	r24, 0x03	; 3
    122c:	96 e0       	ldi	r25, 0x06	; 6
    122e:	0e 94 ff 01 	call	0x3fe	; 0x3fe <ESPXX_JoinAccessPoint>


	while(1){
		

		if(rfid_alive()){
    1232:	0e 94 77 05 	call	0xaee	; 0xaee <rfid_alive>
    1236:	88 23       	and	r24, r24
    1238:	09 f4       	brne	.+2      	; 0x123c <main+0xee>
    123a:	94 c1       	rjmp	.+808    	; 0x1564 <main+0x416>
			
			byte = mfrc522_request(PICC_REQALL,str);
    123c:	be 01       	movw	r22, r28
    123e:	6f 5f       	subi	r22, 0xFF	; 255
    1240:	7f 4f       	sbci	r23, 0xFF	; 255
    1242:	82 e5       	ldi	r24, 0x52	; 82
    1244:	0e 94 94 07 	call	0xf28	; 0xf28 <mfrc522_request>

			if(byte == CARD_FOUND)
    1248:	81 30       	cpi	r24, 0x01	; 1
    124a:	09 f0       	breq	.+2      	; 0x124e <main+0x100>
    124c:	81 c1       	rjmp	.+770    	; 0x1550 <main+0x402>
			{	
				//////////////////////////////////////////////////////////////////////////
				///Aca detecta la tarjeta
				byte = mfrc522_get_card_serial(str);
    124e:	ce 01       	movw	r24, r28
    1250:	01 96       	adiw	r24, 0x01	; 1
    1252:	0e 94 c9 07 	call	0xf92	; 0xf92 <mfrc522_get_card_serial>
				//USART_putstring("CARD DETECTED\r\n");
				sprintf(strchrs,"%x:%x:%x:%x",str[0],str[1],str[2],str[3]);
    1256:	3c 81       	ldd	r19, Y+4	; 0x04
    1258:	2b 81       	ldd	r18, Y+3	; 0x03
    125a:	9a 81       	ldd	r25, Y+2	; 0x02
    125c:	89 81       	ldd	r24, Y+1	; 0x01
    125e:	1f 92       	push	r1
    1260:	3f 93       	push	r19
    1262:	1f 92       	push	r1
    1264:	2f 93       	push	r18
    1266:	1f 92       	push	r1
    1268:	9f 93       	push	r25
    126a:	1f 92       	push	r1
    126c:	8f 93       	push	r24
    126e:	8b e1       	ldi	r24, 0x1B	; 27
    1270:	96 e0       	ldi	r25, 0x06	; 6
    1272:	9f 93       	push	r25
    1274:	8f 93       	push	r24
    1276:	8e 01       	movw	r16, r28
    1278:	0f 5e       	subi	r16, 0xEF	; 239
    127a:	1f 4f       	sbci	r17, 0xFF	; 255
    127c:	1f 93       	push	r17
    127e:	0f 93       	push	r16
    1280:	0e 94 55 0c 	call	0x18aa	; 0x18aa <sprintf>
				//USART_putstring(strchr);
				//////////////////////////////////////////////////////////////////////////
				ds3231_read_clock ( &clock ); // 0 = success
    1284:	ce 01       	movw	r24, r28
    1286:	8b 50       	subi	r24, 0x0B	; 11
    1288:	9f 4f       	sbci	r25, 0xFF	; 255
    128a:	0e 94 c3 04 	call	0x986	; 0x986 <ds3231_read_clock>
				sprintf(clockstr,"%d/%d/%d %d:%d:%d",clock.date,clock.month,clock.year,clock.hours,clock.minutes,clock.seconds);
    128e:	cb 50       	subi	r28, 0x0B	; 11
    1290:	df 4f       	sbci	r29, 0xFF	; 255
    1292:	58 81       	ld	r21, Y
    1294:	c5 5f       	subi	r28, 0xF5	; 245
    1296:	d0 40       	sbci	r29, 0x00	; 0
    1298:	ca 50       	subi	r28, 0x0A	; 10
    129a:	df 4f       	sbci	r29, 0xFF	; 255
    129c:	48 81       	ld	r20, Y
    129e:	c6 5f       	subi	r28, 0xF6	; 246
    12a0:	d0 40       	sbci	r29, 0x00	; 0
    12a2:	c9 50       	subi	r28, 0x09	; 9
    12a4:	df 4f       	sbci	r29, 0xFF	; 255
    12a6:	38 81       	ld	r19, Y
    12a8:	c7 5f       	subi	r28, 0xF7	; 247
    12aa:	d0 40       	sbci	r29, 0x00	; 0
    12ac:	c4 50       	subi	r28, 0x04	; 4
    12ae:	df 4f       	sbci	r29, 0xFF	; 255
    12b0:	28 81       	ld	r18, Y
    12b2:	cc 5f       	subi	r28, 0xFC	; 252
    12b4:	d0 40       	sbci	r29, 0x00	; 0
    12b6:	c5 50       	subi	r28, 0x05	; 5
    12b8:	df 4f       	sbci	r29, 0xFF	; 255
    12ba:	98 81       	ld	r25, Y
    12bc:	cb 5f       	subi	r28, 0xFB	; 251
    12be:	d0 40       	sbci	r29, 0x00	; 0
    12c0:	c7 50       	subi	r28, 0x07	; 7
    12c2:	df 4f       	sbci	r29, 0xFF	; 255
    12c4:	88 81       	ld	r24, Y
    12c6:	c9 5f       	subi	r28, 0xF9	; 249
    12c8:	d0 40       	sbci	r29, 0x00	; 0
    12ca:	1f 92       	push	r1
    12cc:	5f 93       	push	r21
    12ce:	1f 92       	push	r1
    12d0:	4f 93       	push	r20
    12d2:	1f 92       	push	r1
    12d4:	3f 93       	push	r19
    12d6:	1f 92       	push	r1
    12d8:	2f 93       	push	r18
    12da:	1f 92       	push	r1
    12dc:	9f 93       	push	r25
    12de:	1f 92       	push	r1
    12e0:	8f 93       	push	r24
    12e2:	87 e2       	ldi	r24, 0x27	; 39
    12e4:	96 e0       	ldi	r25, 0x06	; 6
    12e6:	9f 93       	push	r25
    12e8:	8f 93       	push	r24
    12ea:	ce 01       	movw	r24, r28
    12ec:	8f 56       	subi	r24, 0x6F	; 111
    12ee:	9f 4f       	sbci	r25, 0xFF	; 255
    12f0:	9f 93       	push	r25
    12f2:	8f 93       	push	r24
    12f4:	0e 94 55 0c 	call	0x18aa	; 0x18aa <sprintf>
				
				//////////////////////////////////////////////////////////////////////////
				///Aca hace el GET a la ID 
				Get_f(channel,strchrs,token);
    12f8:	49 e3       	ldi	r20, 0x39	; 57
    12fa:	56 e0       	ldi	r21, 0x06	; 6
    12fc:	b8 01       	movw	r22, r16
    12fe:	80 e5       	ldi	r24, 0x50	; 80
    1300:	96 e0       	ldi	r25, 0x06	; 6
    1302:	0e 94 12 04 	call	0x824	; 0x824 <Get_f>
				//Read_Data(_buffer); //aca hay q ver q hacemo 
				 char* extracted_data = extract_data(RESPONSE_BUFFER);
    1306:	8d eb       	ldi	r24, 0xBD	; 189
    1308:	96 e0       	ldi	r25, 0x06	; 6
    130a:	0e 94 2a 03 	call	0x654	; 0x654 <extract_data>
				 sprintf(strchrs,"%s",extracted_data);
    130e:	bc 01       	movw	r22, r24
    1310:	c8 01       	movw	r24, r16
    1312:	0e 94 17 0c 	call	0x182e	; 0x182e <strcpy>
						#define tarjeta_bool  "tarjeta_2_bool"
					}
				
					//////////////////////////////////////////////////////////////////////////
					//abre el rele
					PORTD |= (1 << 7);
    1316:	8b b1       	in	r24, 0x0b	; 11
    1318:	80 68       	ori	r24, 0x80	; 128
    131a:	8b b9       	out	0x0b, r24	; 11
					prenderled = 1;
    131c:	81 e0       	ldi	r24, 0x01	; 1
    131e:	80 93 bc 06 	sts	0x06BC, r24	; 0x8006bc <prenderled>
					TCNT1 = (65535 - (16000000/1024)*50);
    1322:	8d e3       	ldi	r24, 0x3D	; 61
    1324:	94 e1       	ldi	r25, 0x14	; 20
    1326:	90 93 85 00 	sts	0x0085, r25	; 0x800085 <__TEXT_REGION_LENGTH__+0x7f8085>
    132a:	80 93 84 00 	sts	0x0084, r24	; 0x800084 <__TEXT_REGION_LENGTH__+0x7f8084>
					//////////////////////////////////////////////////////////////////////////
					
					//////////////////////////////////////////////////////////////////////////
					///GET para saber si esta adentro o afuera 
					Get_f(channel,tarjeta_bool,token);
    132e:	49 e3       	ldi	r20, 0x39	; 57
    1330:	56 e0       	ldi	r21, 0x06	; 6
    1332:	6e e5       	ldi	r22, 0x5E	; 94
    1334:	76 e0       	ldi	r23, 0x06	; 6
    1336:	80 e5       	ldi	r24, 0x50	; 80
    1338:	96 e0       	ldi	r25, 0x06	; 6
    133a:	0e 94 12 04 	call	0x824	; 0x824 <Get_f>
					bool entrando = strcmp(extract_data(RESPONSE_BUFFER),"true");
    133e:	8d eb       	ldi	r24, 0xBD	; 189
    1340:	96 e0       	ldi	r25, 0x06	; 6
    1342:	0e 94 2a 03 	call	0x654	; 0x654 <extract_data>
    1346:	69 e5       	ldi	r22, 0x59	; 89
    1348:	76 e0       	ldi	r23, 0x06	; 6
    134a:	0e 94 0e 0c 	call	0x181c	; 0x181c <strcmp>
    134e:	8c 01       	movw	r16, r24
					bool saliendo = strcmp(extract_data(RESPONSE_BUFFER),"false");
    1350:	8d eb       	ldi	r24, 0xBD	; 189
    1352:	96 e0       	ldi	r25, 0x06	; 6
    1354:	0e 94 2a 03 	call	0x654	; 0x654 <extract_data>
    1358:	6d e6       	ldi	r22, 0x6D	; 109
    135a:	76 e0       	ldi	r23, 0x06	; 6
    135c:	0e 94 0e 0c 	call	0x181c	; 0x181c <strcmp>
    1360:	7c 01       	movw	r14, r24
					//////////////////////////////////////////////////////////////////////////
					
					if(entrando)
    1362:	0f b6       	in	r0, 0x3f	; 63
    1364:	f8 94       	cli
    1366:	de bf       	out	0x3e, r29	; 62
    1368:	0f be       	out	0x3f, r0	; 63
    136a:	cd bf       	out	0x3d, r28	; 61
    136c:	01 2b       	or	r16, r17
    136e:	41 f0       	breq	.+16     	; 0x1380 <main+0x232>
					//////////////////////////////////////////////////////////////////////////
					///registra el tiempo y lo envia a tiempo de entrada
					Get_f(channel,tarjeta_entrada,token);
    1370:	49 e3       	ldi	r20, 0x39	; 57
    1372:	56 e0       	ldi	r21, 0x06	; 6
    1374:	63 e7       	ldi	r22, 0x73	; 115
    1376:	76 e0       	ldi	r23, 0x06	; 6
    1378:	80 e5       	ldi	r24, 0x50	; 80
    137a:	96 e0       	ldi	r25, 0x06	; 6
    137c:	0e 94 12 04 	call	0x824	; 0x824 <Get_f>
					//_buffer = extract_data(RESPONSE_BUFFER);
					//ACA MOVEMOS EL VECTOR DE TIEMPO
					memmove(_buffer, _buffer + 17, strlen(_buffer) - 17 + 1);
    1380:	8e 01       	movw	r16, r28
    1382:	03 50       	subi	r16, 0x03	; 3
    1384:	1f 4f       	sbci	r17, 0xFF	; 255
    1386:	f8 01       	movw	r30, r16
    1388:	01 90       	ld	r0, Z+
    138a:	00 20       	and	r0, r0
    138c:	e9 f7       	brne	.-6      	; 0x1388 <main+0x23a>
    138e:	31 97       	sbiw	r30, 0x01	; 1
    1390:	af 01       	movw	r20, r30
    1392:	40 1b       	sub	r20, r16
    1394:	51 0b       	sbc	r21, r17
    1396:	40 51       	subi	r20, 0x10	; 16
    1398:	51 09       	sbc	r21, r1
    139a:	b8 01       	movw	r22, r16
    139c:	6f 5e       	subi	r22, 0xEF	; 239
    139e:	7f 4f       	sbci	r23, 0xFF	; 255
    13a0:	c8 01       	movw	r24, r16
    13a2:	0e 94 e6 0b 	call	0x17cc	; 0x17cc <memmove>
					sprintf(strchrs,",%s",clockstr);
    13a6:	ce 01       	movw	r24, r28
    13a8:	8f 56       	subi	r24, 0x6F	; 111
    13aa:	9f 4f       	sbci	r25, 0xFF	; 255
    13ac:	9f 93       	push	r25
    13ae:	8f 93       	push	r24
    13b0:	88 e9       	ldi	r24, 0x98	; 152
    13b2:	94 e0       	ldi	r25, 0x04	; 4
    13b4:	9f 93       	push	r25
    13b6:	8f 93       	push	r24
    13b8:	6e 01       	movw	r12, r28
    13ba:	b1 e1       	ldi	r27, 0x11	; 17
    13bc:	cb 0e       	add	r12, r27
    13be:	d1 1c       	adc	r13, r1
    13c0:	df 92       	push	r13
    13c2:	cf 92       	push	r12
    13c4:	0e 94 55 0c 	call	0x18aa	; 0x18aa <sprintf>
					strcat(_buffer,strchrs);
    13c8:	b6 01       	movw	r22, r12
    13ca:	c8 01       	movw	r24, r16
    13cc:	0e 94 f8 0b 	call	0x17f0	; 0x17f0 <strcat>
					//ACA LO PUSHEAMOS 
					Post_f(channel,tarjeta_entrada,token,_buffer);
    13d0:	98 01       	movw	r18, r16
    13d2:	49 e3       	ldi	r20, 0x39	; 57
    13d4:	56 e0       	ldi	r21, 0x06	; 6
    13d6:	63 e7       	ldi	r22, 0x73	; 115
    13d8:	76 e0       	ldi	r23, 0x06	; 6
    13da:	80 e5       	ldi	r24, 0x50	; 80
    13dc:	96 e0       	ldi	r25, 0x06	; 6
    13de:	0e 94 54 03 	call	0x6a8	; 0x6a8 <Post_f>
					//////////////////////////////////////////////////////////////////////////
					
					//////////////////////////////////////////////////////////////////////////
					/// cambia el valor del bool 
					Post_f(channel,tarjeta_bool,token,"false");
    13e2:	2d e6       	ldi	r18, 0x6D	; 109
    13e4:	36 e0       	ldi	r19, 0x06	; 6
    13e6:	49 e3       	ldi	r20, 0x39	; 57
    13e8:	56 e0       	ldi	r21, 0x06	; 6
    13ea:	6e e5       	ldi	r22, 0x5E	; 94
    13ec:	76 e0       	ldi	r23, 0x06	; 6
    13ee:	80 e5       	ldi	r24, 0x50	; 80
    13f0:	96 e0       	ldi	r25, 0x06	; 6
    13f2:	0e 94 54 03 	call	0x6a8	; 0x6a8 <Post_f>
					
					//////////////////////////////////////////////////////////////////////////
					if(saliendo)
    13f6:	0f 90       	pop	r0
    13f8:	0f 90       	pop	r0
    13fa:	0f 90       	pop	r0
    13fc:	0f 90       	pop	r0
    13fe:	0f 90       	pop	r0
    1400:	0f 90       	pop	r0
    1402:	ef 28       	or	r14, r15
    1404:	41 f0       	breq	.+16     	; 0x1416 <main+0x2c8>
					//////////////////////////////////////////////////////////////////////////
					///registra el tiempo 
					Get_f(channel,tarjeta_salida,token);
    1406:	49 e3       	ldi	r20, 0x39	; 57
    1408:	56 e0       	ldi	r21, 0x06	; 6
    140a:	65 e8       	ldi	r22, 0x85	; 133
    140c:	76 e0       	ldi	r23, 0x06	; 6
    140e:	80 e5       	ldi	r24, 0x50	; 80
    1410:	96 e0       	ldi	r25, 0x06	; 6
    1412:	0e 94 12 04 	call	0x824	; 0x824 <Get_f>
					//_buffer = extract_data(RESPONSE_BUFFER);
					//ACA MOVEMOS EL VECTOR DE TIEMPO
					memmove(_buffer, _buffer + 17, strlen(_buffer) - 17 + 1);
    1416:	8e 01       	movw	r16, r28
    1418:	03 50       	subi	r16, 0x03	; 3
    141a:	1f 4f       	sbci	r17, 0xFF	; 255
    141c:	f8 01       	movw	r30, r16
    141e:	01 90       	ld	r0, Z+
    1420:	00 20       	and	r0, r0
    1422:	e9 f7       	brne	.-6      	; 0x141e <main+0x2d0>
    1424:	31 97       	sbiw	r30, 0x01	; 1
    1426:	af 01       	movw	r20, r30
    1428:	40 1b       	sub	r20, r16
    142a:	51 0b       	sbc	r21, r17
    142c:	40 51       	subi	r20, 0x10	; 16
    142e:	51 09       	sbc	r21, r1
    1430:	b8 01       	movw	r22, r16
    1432:	6f 5e       	subi	r22, 0xEF	; 239
    1434:	7f 4f       	sbci	r23, 0xFF	; 255
    1436:	c8 01       	movw	r24, r16
    1438:	0e 94 e6 0b 	call	0x17cc	; 0x17cc <memmove>
					sprintf(strchrs,",%s",clockstr);
    143c:	ce 01       	movw	r24, r28
    143e:	8f 56       	subi	r24, 0x6F	; 111
    1440:	9f 4f       	sbci	r25, 0xFF	; 255
    1442:	9f 93       	push	r25
    1444:	8f 93       	push	r24
    1446:	88 e9       	ldi	r24, 0x98	; 152
    1448:	94 e0       	ldi	r25, 0x04	; 4
    144a:	9f 93       	push	r25
    144c:	8f 93       	push	r24
    144e:	7e 01       	movw	r14, r28
    1450:	21 e1       	ldi	r18, 0x11	; 17
    1452:	e2 0e       	add	r14, r18
    1454:	f1 1c       	adc	r15, r1
    1456:	ff 92       	push	r15
    1458:	ef 92       	push	r14
    145a:	0e 94 55 0c 	call	0x18aa	; 0x18aa <sprintf>
					strcat(_buffer,strchrs);
    145e:	b7 01       	movw	r22, r14
    1460:	c8 01       	movw	r24, r16
    1462:	0e 94 f8 0b 	call	0x17f0	; 0x17f0 <strcat>
					//ACA LO PUSHEAMOS
					Post_f(channel,tarjeta_salida,token,_buffer);
    1466:	98 01       	movw	r18, r16
    1468:	49 e3       	ldi	r20, 0x39	; 57
    146a:	56 e0       	ldi	r21, 0x06	; 6
    146c:	65 e8       	ldi	r22, 0x85	; 133
    146e:	76 e0       	ldi	r23, 0x06	; 6
    1470:	80 e5       	ldi	r24, 0x50	; 80
    1472:	96 e0       	ldi	r25, 0x06	; 6
    1474:	0e 94 54 03 	call	0x6a8	; 0x6a8 <Post_f>
					
					//////////////////////////////////////////////////////////////////////////
					
					//////////////////////////////////////////////////////////////////////////
					///resta los tiempos
					Get_f(channel,tarjeta_entrada,token);
    1478:	49 e3       	ldi	r20, 0x39	; 57
    147a:	56 e0       	ldi	r21, 0x06	; 6
    147c:	63 e7       	ldi	r22, 0x73	; 115
    147e:	76 e0       	ldi	r23, 0x06	; 6
    1480:	80 e5       	ldi	r24, 0x50	; 80
    1482:	96 e0       	ldi	r25, 0x06	; 6
    1484:	0e 94 12 04 	call	0x824	; 0x824 <Get_f>
					strcpy(_buffer,extract_data(RESPONSE_BUFFER)); 
    1488:	8d eb       	ldi	r24, 0xBD	; 189
    148a:	96 e0       	ldi	r25, 0x06	; 6
    148c:	0e 94 2a 03 	call	0x654	; 0x654 <extract_data>
    1490:	bc 01       	movw	r22, r24
    1492:	c8 01       	movw	r24, r16
    1494:	0e 94 17 0c 	call	0x182e	; 0x182e <strcpy>
					memmove(_buffer,_buffer + (17*4),strlen(_buffer) - (17*4)+1);
    1498:	f8 01       	movw	r30, r16
    149a:	01 90       	ld	r0, Z+
    149c:	00 20       	and	r0, r0
    149e:	e9 f7       	brne	.-6      	; 0x149a <main+0x34c>
    14a0:	31 97       	sbiw	r30, 0x01	; 1
    14a2:	af 01       	movw	r20, r30
    14a4:	40 1b       	sub	r20, r16
    14a6:	51 0b       	sbc	r21, r17
    14a8:	43 54       	subi	r20, 0x43	; 67
    14aa:	51 09       	sbc	r21, r1
    14ac:	be 01       	movw	r22, r28
    14ae:	6f 5b       	subi	r22, 0xBF	; 191
    14b0:	7e 4f       	sbci	r23, 0xFE	; 254
    14b2:	c8 01       	movw	r24, r16
    14b4:	0e 94 e6 0b 	call	0x17cc	; 0x17cc <memmove>
					//sprintf(_buffer,"%d/%d/%d %d:%d:%d",duration.date,duration.month,duration.year,duration.hours,duration.minutes,duration.seconds);
					//////////////////////////////////////////////////////////////////////////
					
					//////////////////////////////////////////////////////////////////////////
					///cambia el bool
					Post_f(channel,tarjeta_bool,token,"false");
    14b8:	2d e6       	ldi	r18, 0x6D	; 109
    14ba:	36 e0       	ldi	r19, 0x06	; 6
    14bc:	49 e3       	ldi	r20, 0x39	; 57
    14be:	56 e0       	ldi	r21, 0x06	; 6
    14c0:	6e e5       	ldi	r22, 0x5E	; 94
    14c2:	76 e0       	ldi	r23, 0x06	; 6
    14c4:	80 e5       	ldi	r24, 0x50	; 80
    14c6:	96 e0       	ldi	r25, 0x06	; 6
    14c8:	0e 94 54 03 	call	0x6a8	; 0x6a8 <Post_f>
				//horario de entrada
				//horario de salida 
				//string = { " "," "}  
				
				
				byte = ds3231_read_clock ( &clock ); // 0 = success
    14cc:	ce 01       	movw	r24, r28
    14ce:	8b 50       	subi	r24, 0x0B	; 11
    14d0:	9f 4f       	sbci	r25, 0xFF	; 255
    14d2:	0e 94 c3 04 	call	0x986	; 0x986 <ds3231_read_clock>
				sprintf(strchr,"Clock = %d/%d/%d %d:%d:%d \r\n",clock.date,clock.month,clock.year,clock.hours,clock.minutes,clock.seconds);
    14d6:	cb 50       	subi	r28, 0x0B	; 11
    14d8:	df 4f       	sbci	r29, 0xFF	; 255
    14da:	58 81       	ld	r21, Y
    14dc:	c5 5f       	subi	r28, 0xF5	; 245
    14de:	d0 40       	sbci	r29, 0x00	; 0
    14e0:	ca 50       	subi	r28, 0x0A	; 10
    14e2:	df 4f       	sbci	r29, 0xFF	; 255
    14e4:	48 81       	ld	r20, Y
    14e6:	c6 5f       	subi	r28, 0xF6	; 246
    14e8:	d0 40       	sbci	r29, 0x00	; 0
    14ea:	c9 50       	subi	r28, 0x09	; 9
    14ec:	df 4f       	sbci	r29, 0xFF	; 255
    14ee:	38 81       	ld	r19, Y
    14f0:	c7 5f       	subi	r28, 0xF7	; 247
    14f2:	d0 40       	sbci	r29, 0x00	; 0
    14f4:	c4 50       	subi	r28, 0x04	; 4
    14f6:	df 4f       	sbci	r29, 0xFF	; 255
    14f8:	28 81       	ld	r18, Y
    14fa:	cc 5f       	subi	r28, 0xFC	; 252
    14fc:	d0 40       	sbci	r29, 0x00	; 0
    14fe:	c5 50       	subi	r28, 0x05	; 5
    1500:	df 4f       	sbci	r29, 0xFF	; 255
    1502:	98 81       	ld	r25, Y
    1504:	cb 5f       	subi	r28, 0xFB	; 251
    1506:	d0 40       	sbci	r29, 0x00	; 0
    1508:	c7 50       	subi	r28, 0x07	; 7
    150a:	df 4f       	sbci	r29, 0xFF	; 255
    150c:	88 81       	ld	r24, Y
    150e:	c9 5f       	subi	r28, 0xF9	; 249
    1510:	d0 40       	sbci	r29, 0x00	; 0
    1512:	1f 92       	push	r1
    1514:	5f 93       	push	r21
    1516:	1f 92       	push	r1
    1518:	4f 93       	push	r20
    151a:	1f 92       	push	r1
    151c:	3f 93       	push	r19
    151e:	1f 92       	push	r1
    1520:	2f 93       	push	r18
    1522:	1f 92       	push	r1
    1524:	9f 93       	push	r25
    1526:	1f 92       	push	r1
    1528:	8f 93       	push	r24
    152a:	86 e9       	ldi	r24, 0x96	; 150
    152c:	96 e0       	ldi	r25, 0x06	; 6
    152e:	9f 93       	push	r25
    1530:	8f 93       	push	r24
    1532:	83 e0       	ldi	r24, 0x03	; 3
    1534:	9c e0       	ldi	r25, 0x0C	; 12
    1536:	9f 93       	push	r25
    1538:	8f 93       	push	r24
    153a:	0e 94 55 0c 	call	0x18aa	; 0x18aa <sprintf>
				USART_putstring(strchr);
    153e:	83 e0       	ldi	r24, 0x03	; 3
    1540:	9c e0       	ldi	r25, 0x0C	; 12
    1542:	0e 94 2a 08 	call	0x1054	; 0x1054 <USART_putstring>
    1546:	0f b6       	in	r0, 0x3f	; 63
    1548:	f8 94       	cli
    154a:	de bf       	out	0x3e, r29	; 62
    154c:	0f be       	out	0x3f, r0	; 63
    154e:	cd bf       	out	0x3d, r28	; 61
    1550:	9f ef       	ldi	r25, 0xFF	; 255
    1552:	a7 ea       	ldi	r26, 0xA7	; 167
    1554:	b1 e6       	ldi	r27, 0x61	; 97
    1556:	91 50       	subi	r25, 0x01	; 1
    1558:	a0 40       	sbci	r26, 0x00	; 0
    155a:	b0 40       	sbci	r27, 0x00	; 0
    155c:	e1 f7       	brne	.-8      	; 0x1556 <main+0x408>
    155e:	00 c0       	rjmp	.+0      	; 0x1560 <main+0x412>
    1560:	00 00       	nop
    1562:	67 ce       	rjmp	.-818    	; 0x1232 <main+0xe4>
    1564:	2f ef       	ldi	r18, 0xFF	; 255
    1566:	83 ed       	ldi	r24, 0xD3	; 211
    1568:	90 e3       	ldi	r25, 0x30	; 48
    156a:	21 50       	subi	r18, 0x01	; 1
    156c:	80 40       	sbci	r24, 0x00	; 0
    156e:	90 40       	sbci	r25, 0x00	; 0
    1570:	e1 f7       	brne	.-8      	; 0x156a <main+0x41c>
    1572:	00 c0       	rjmp	.+0      	; 0x1574 <main+0x426>
    1574:	00 00       	nop
    1576:	5d ce       	rjmp	.-838    	; 0x1232 <main+0xe4>

00001578 <malloc>:
    1578:	0f 93       	push	r16
    157a:	1f 93       	push	r17
    157c:	cf 93       	push	r28
    157e:	df 93       	push	r29
    1580:	82 30       	cpi	r24, 0x02	; 2
    1582:	91 05       	cpc	r25, r1
    1584:	10 f4       	brcc	.+4      	; 0x158a <malloc+0x12>
    1586:	82 e0       	ldi	r24, 0x02	; 2
    1588:	90 e0       	ldi	r25, 0x00	; 0
    158a:	e0 91 61 07 	lds	r30, 0x0761	; 0x800761 <__flp>
    158e:	f0 91 62 07 	lds	r31, 0x0762	; 0x800762 <__flp+0x1>
    1592:	20 e0       	ldi	r18, 0x00	; 0
    1594:	30 e0       	ldi	r19, 0x00	; 0
    1596:	a0 e0       	ldi	r26, 0x00	; 0
    1598:	b0 e0       	ldi	r27, 0x00	; 0
    159a:	30 97       	sbiw	r30, 0x00	; 0
    159c:	19 f1       	breq	.+70     	; 0x15e4 <malloc+0x6c>
    159e:	40 81       	ld	r20, Z
    15a0:	51 81       	ldd	r21, Z+1	; 0x01
    15a2:	02 81       	ldd	r16, Z+2	; 0x02
    15a4:	13 81       	ldd	r17, Z+3	; 0x03
    15a6:	48 17       	cp	r20, r24
    15a8:	59 07       	cpc	r21, r25
    15aa:	c8 f0       	brcs	.+50     	; 0x15de <malloc+0x66>
    15ac:	84 17       	cp	r24, r20
    15ae:	95 07       	cpc	r25, r21
    15b0:	69 f4       	brne	.+26     	; 0x15cc <malloc+0x54>
    15b2:	10 97       	sbiw	r26, 0x00	; 0
    15b4:	31 f0       	breq	.+12     	; 0x15c2 <malloc+0x4a>
    15b6:	12 96       	adiw	r26, 0x02	; 2
    15b8:	0c 93       	st	X, r16
    15ba:	12 97       	sbiw	r26, 0x02	; 2
    15bc:	13 96       	adiw	r26, 0x03	; 3
    15be:	1c 93       	st	X, r17
    15c0:	27 c0       	rjmp	.+78     	; 0x1610 <malloc+0x98>
    15c2:	00 93 61 07 	sts	0x0761, r16	; 0x800761 <__flp>
    15c6:	10 93 62 07 	sts	0x0762, r17	; 0x800762 <__flp+0x1>
    15ca:	22 c0       	rjmp	.+68     	; 0x1610 <malloc+0x98>
    15cc:	21 15       	cp	r18, r1
    15ce:	31 05       	cpc	r19, r1
    15d0:	19 f0       	breq	.+6      	; 0x15d8 <malloc+0x60>
    15d2:	42 17       	cp	r20, r18
    15d4:	53 07       	cpc	r21, r19
    15d6:	18 f4       	brcc	.+6      	; 0x15de <malloc+0x66>
    15d8:	9a 01       	movw	r18, r20
    15da:	bd 01       	movw	r22, r26
    15dc:	ef 01       	movw	r28, r30
    15de:	df 01       	movw	r26, r30
    15e0:	f8 01       	movw	r30, r16
    15e2:	db cf       	rjmp	.-74     	; 0x159a <malloc+0x22>
    15e4:	21 15       	cp	r18, r1
    15e6:	31 05       	cpc	r19, r1
    15e8:	f9 f0       	breq	.+62     	; 0x1628 <malloc+0xb0>
    15ea:	28 1b       	sub	r18, r24
    15ec:	39 0b       	sbc	r19, r25
    15ee:	24 30       	cpi	r18, 0x04	; 4
    15f0:	31 05       	cpc	r19, r1
    15f2:	80 f4       	brcc	.+32     	; 0x1614 <malloc+0x9c>
    15f4:	8a 81       	ldd	r24, Y+2	; 0x02
    15f6:	9b 81       	ldd	r25, Y+3	; 0x03
    15f8:	61 15       	cp	r22, r1
    15fa:	71 05       	cpc	r23, r1
    15fc:	21 f0       	breq	.+8      	; 0x1606 <malloc+0x8e>
    15fe:	fb 01       	movw	r30, r22
    1600:	93 83       	std	Z+3, r25	; 0x03
    1602:	82 83       	std	Z+2, r24	; 0x02
    1604:	04 c0       	rjmp	.+8      	; 0x160e <malloc+0x96>
    1606:	90 93 62 07 	sts	0x0762, r25	; 0x800762 <__flp+0x1>
    160a:	80 93 61 07 	sts	0x0761, r24	; 0x800761 <__flp>
    160e:	fe 01       	movw	r30, r28
    1610:	32 96       	adiw	r30, 0x02	; 2
    1612:	44 c0       	rjmp	.+136    	; 0x169c <malloc+0x124>
    1614:	fe 01       	movw	r30, r28
    1616:	e2 0f       	add	r30, r18
    1618:	f3 1f       	adc	r31, r19
    161a:	81 93       	st	Z+, r24
    161c:	91 93       	st	Z+, r25
    161e:	22 50       	subi	r18, 0x02	; 2
    1620:	31 09       	sbc	r19, r1
    1622:	39 83       	std	Y+1, r19	; 0x01
    1624:	28 83       	st	Y, r18
    1626:	3a c0       	rjmp	.+116    	; 0x169c <malloc+0x124>
    1628:	20 91 5f 07 	lds	r18, 0x075F	; 0x80075f <__brkval>
    162c:	30 91 60 07 	lds	r19, 0x0760	; 0x800760 <__brkval+0x1>
    1630:	23 2b       	or	r18, r19
    1632:	41 f4       	brne	.+16     	; 0x1644 <malloc+0xcc>
    1634:	20 91 02 01 	lds	r18, 0x0102	; 0x800102 <__malloc_heap_start>
    1638:	30 91 03 01 	lds	r19, 0x0103	; 0x800103 <__malloc_heap_start+0x1>
    163c:	30 93 60 07 	sts	0x0760, r19	; 0x800760 <__brkval+0x1>
    1640:	20 93 5f 07 	sts	0x075F, r18	; 0x80075f <__brkval>
    1644:	20 91 00 01 	lds	r18, 0x0100	; 0x800100 <__data_start>
    1648:	30 91 01 01 	lds	r19, 0x0101	; 0x800101 <__data_start+0x1>
    164c:	21 15       	cp	r18, r1
    164e:	31 05       	cpc	r19, r1
    1650:	41 f4       	brne	.+16     	; 0x1662 <malloc+0xea>
    1652:	2d b7       	in	r18, 0x3d	; 61
    1654:	3e b7       	in	r19, 0x3e	; 62
    1656:	40 91 04 01 	lds	r20, 0x0104	; 0x800104 <__malloc_margin>
    165a:	50 91 05 01 	lds	r21, 0x0105	; 0x800105 <__malloc_margin+0x1>
    165e:	24 1b       	sub	r18, r20
    1660:	35 0b       	sbc	r19, r21
    1662:	e0 91 5f 07 	lds	r30, 0x075F	; 0x80075f <__brkval>
    1666:	f0 91 60 07 	lds	r31, 0x0760	; 0x800760 <__brkval+0x1>
    166a:	e2 17       	cp	r30, r18
    166c:	f3 07       	cpc	r31, r19
    166e:	a0 f4       	brcc	.+40     	; 0x1698 <malloc+0x120>
    1670:	2e 1b       	sub	r18, r30
    1672:	3f 0b       	sbc	r19, r31
    1674:	28 17       	cp	r18, r24
    1676:	39 07       	cpc	r19, r25
    1678:	78 f0       	brcs	.+30     	; 0x1698 <malloc+0x120>
    167a:	ac 01       	movw	r20, r24
    167c:	4e 5f       	subi	r20, 0xFE	; 254
    167e:	5f 4f       	sbci	r21, 0xFF	; 255
    1680:	24 17       	cp	r18, r20
    1682:	35 07       	cpc	r19, r21
    1684:	48 f0       	brcs	.+18     	; 0x1698 <malloc+0x120>
    1686:	4e 0f       	add	r20, r30
    1688:	5f 1f       	adc	r21, r31
    168a:	50 93 60 07 	sts	0x0760, r21	; 0x800760 <__brkval+0x1>
    168e:	40 93 5f 07 	sts	0x075F, r20	; 0x80075f <__brkval>
    1692:	81 93       	st	Z+, r24
    1694:	91 93       	st	Z+, r25
    1696:	02 c0       	rjmp	.+4      	; 0x169c <malloc+0x124>
    1698:	e0 e0       	ldi	r30, 0x00	; 0
    169a:	f0 e0       	ldi	r31, 0x00	; 0
    169c:	cf 01       	movw	r24, r30
    169e:	df 91       	pop	r29
    16a0:	cf 91       	pop	r28
    16a2:	1f 91       	pop	r17
    16a4:	0f 91       	pop	r16
    16a6:	08 95       	ret

000016a8 <free>:
    16a8:	cf 93       	push	r28
    16aa:	df 93       	push	r29
    16ac:	00 97       	sbiw	r24, 0x00	; 0
    16ae:	09 f4       	brne	.+2      	; 0x16b2 <free+0xa>
    16b0:	81 c0       	rjmp	.+258    	; 0x17b4 <free+0x10c>
    16b2:	fc 01       	movw	r30, r24
    16b4:	32 97       	sbiw	r30, 0x02	; 2
    16b6:	13 82       	std	Z+3, r1	; 0x03
    16b8:	12 82       	std	Z+2, r1	; 0x02
    16ba:	a0 91 61 07 	lds	r26, 0x0761	; 0x800761 <__flp>
    16be:	b0 91 62 07 	lds	r27, 0x0762	; 0x800762 <__flp+0x1>
    16c2:	10 97       	sbiw	r26, 0x00	; 0
    16c4:	81 f4       	brne	.+32     	; 0x16e6 <free+0x3e>
    16c6:	20 81       	ld	r18, Z
    16c8:	31 81       	ldd	r19, Z+1	; 0x01
    16ca:	82 0f       	add	r24, r18
    16cc:	93 1f       	adc	r25, r19
    16ce:	20 91 5f 07 	lds	r18, 0x075F	; 0x80075f <__brkval>
    16d2:	30 91 60 07 	lds	r19, 0x0760	; 0x800760 <__brkval+0x1>
    16d6:	28 17       	cp	r18, r24
    16d8:	39 07       	cpc	r19, r25
    16da:	51 f5       	brne	.+84     	; 0x1730 <free+0x88>
    16dc:	f0 93 60 07 	sts	0x0760, r31	; 0x800760 <__brkval+0x1>
    16e0:	e0 93 5f 07 	sts	0x075F, r30	; 0x80075f <__brkval>
    16e4:	67 c0       	rjmp	.+206    	; 0x17b4 <free+0x10c>
    16e6:	ed 01       	movw	r28, r26
    16e8:	20 e0       	ldi	r18, 0x00	; 0
    16ea:	30 e0       	ldi	r19, 0x00	; 0
    16ec:	ce 17       	cp	r28, r30
    16ee:	df 07       	cpc	r29, r31
    16f0:	40 f4       	brcc	.+16     	; 0x1702 <free+0x5a>
    16f2:	4a 81       	ldd	r20, Y+2	; 0x02
    16f4:	5b 81       	ldd	r21, Y+3	; 0x03
    16f6:	9e 01       	movw	r18, r28
    16f8:	41 15       	cp	r20, r1
    16fa:	51 05       	cpc	r21, r1
    16fc:	f1 f0       	breq	.+60     	; 0x173a <free+0x92>
    16fe:	ea 01       	movw	r28, r20
    1700:	f5 cf       	rjmp	.-22     	; 0x16ec <free+0x44>
    1702:	d3 83       	std	Z+3, r29	; 0x03
    1704:	c2 83       	std	Z+2, r28	; 0x02
    1706:	40 81       	ld	r20, Z
    1708:	51 81       	ldd	r21, Z+1	; 0x01
    170a:	84 0f       	add	r24, r20
    170c:	95 1f       	adc	r25, r21
    170e:	c8 17       	cp	r28, r24
    1710:	d9 07       	cpc	r29, r25
    1712:	59 f4       	brne	.+22     	; 0x172a <free+0x82>
    1714:	88 81       	ld	r24, Y
    1716:	99 81       	ldd	r25, Y+1	; 0x01
    1718:	84 0f       	add	r24, r20
    171a:	95 1f       	adc	r25, r21
    171c:	02 96       	adiw	r24, 0x02	; 2
    171e:	91 83       	std	Z+1, r25	; 0x01
    1720:	80 83       	st	Z, r24
    1722:	8a 81       	ldd	r24, Y+2	; 0x02
    1724:	9b 81       	ldd	r25, Y+3	; 0x03
    1726:	93 83       	std	Z+3, r25	; 0x03
    1728:	82 83       	std	Z+2, r24	; 0x02
    172a:	21 15       	cp	r18, r1
    172c:	31 05       	cpc	r19, r1
    172e:	29 f4       	brne	.+10     	; 0x173a <free+0x92>
    1730:	f0 93 62 07 	sts	0x0762, r31	; 0x800762 <__flp+0x1>
    1734:	e0 93 61 07 	sts	0x0761, r30	; 0x800761 <__flp>
    1738:	3d c0       	rjmp	.+122    	; 0x17b4 <free+0x10c>
    173a:	e9 01       	movw	r28, r18
    173c:	fb 83       	std	Y+3, r31	; 0x03
    173e:	ea 83       	std	Y+2, r30	; 0x02
    1740:	49 91       	ld	r20, Y+
    1742:	59 91       	ld	r21, Y+
    1744:	c4 0f       	add	r28, r20
    1746:	d5 1f       	adc	r29, r21
    1748:	ec 17       	cp	r30, r28
    174a:	fd 07       	cpc	r31, r29
    174c:	61 f4       	brne	.+24     	; 0x1766 <free+0xbe>
    174e:	80 81       	ld	r24, Z
    1750:	91 81       	ldd	r25, Z+1	; 0x01
    1752:	84 0f       	add	r24, r20
    1754:	95 1f       	adc	r25, r21
    1756:	02 96       	adiw	r24, 0x02	; 2
    1758:	e9 01       	movw	r28, r18
    175a:	99 83       	std	Y+1, r25	; 0x01
    175c:	88 83       	st	Y, r24
    175e:	82 81       	ldd	r24, Z+2	; 0x02
    1760:	93 81       	ldd	r25, Z+3	; 0x03
    1762:	9b 83       	std	Y+3, r25	; 0x03
    1764:	8a 83       	std	Y+2, r24	; 0x02
    1766:	e0 e0       	ldi	r30, 0x00	; 0
    1768:	f0 e0       	ldi	r31, 0x00	; 0
    176a:	12 96       	adiw	r26, 0x02	; 2
    176c:	8d 91       	ld	r24, X+
    176e:	9c 91       	ld	r25, X
    1770:	13 97       	sbiw	r26, 0x03	; 3
    1772:	00 97       	sbiw	r24, 0x00	; 0
    1774:	19 f0       	breq	.+6      	; 0x177c <free+0xd4>
    1776:	fd 01       	movw	r30, r26
    1778:	dc 01       	movw	r26, r24
    177a:	f7 cf       	rjmp	.-18     	; 0x176a <free+0xc2>
    177c:	8d 91       	ld	r24, X+
    177e:	9c 91       	ld	r25, X
    1780:	11 97       	sbiw	r26, 0x01	; 1
    1782:	9d 01       	movw	r18, r26
    1784:	2e 5f       	subi	r18, 0xFE	; 254
    1786:	3f 4f       	sbci	r19, 0xFF	; 255
    1788:	82 0f       	add	r24, r18
    178a:	93 1f       	adc	r25, r19
    178c:	20 91 5f 07 	lds	r18, 0x075F	; 0x80075f <__brkval>
    1790:	30 91 60 07 	lds	r19, 0x0760	; 0x800760 <__brkval+0x1>
    1794:	28 17       	cp	r18, r24
    1796:	39 07       	cpc	r19, r25
    1798:	69 f4       	brne	.+26     	; 0x17b4 <free+0x10c>
    179a:	30 97       	sbiw	r30, 0x00	; 0
    179c:	29 f4       	brne	.+10     	; 0x17a8 <free+0x100>
    179e:	10 92 62 07 	sts	0x0762, r1	; 0x800762 <__flp+0x1>
    17a2:	10 92 61 07 	sts	0x0761, r1	; 0x800761 <__flp>
    17a6:	02 c0       	rjmp	.+4      	; 0x17ac <free+0x104>
    17a8:	13 82       	std	Z+3, r1	; 0x03
    17aa:	12 82       	std	Z+2, r1	; 0x02
    17ac:	b0 93 60 07 	sts	0x0760, r27	; 0x800760 <__brkval+0x1>
    17b0:	a0 93 5f 07 	sts	0x075F, r26	; 0x80075f <__brkval>
    17b4:	df 91       	pop	r29
    17b6:	cf 91       	pop	r28
    17b8:	08 95       	ret

000017ba <memcpy>:
    17ba:	fb 01       	movw	r30, r22
    17bc:	dc 01       	movw	r26, r24
    17be:	02 c0       	rjmp	.+4      	; 0x17c4 <memcpy+0xa>
    17c0:	01 90       	ld	r0, Z+
    17c2:	0d 92       	st	X+, r0
    17c4:	41 50       	subi	r20, 0x01	; 1
    17c6:	50 40       	sbci	r21, 0x00	; 0
    17c8:	d8 f7       	brcc	.-10     	; 0x17c0 <memcpy+0x6>
    17ca:	08 95       	ret

000017cc <memmove>:
    17cc:	68 17       	cp	r22, r24
    17ce:	79 07       	cpc	r23, r25
    17d0:	68 f4       	brcc	.+26     	; 0x17ec <memmove+0x20>
    17d2:	fb 01       	movw	r30, r22
    17d4:	dc 01       	movw	r26, r24
    17d6:	e4 0f       	add	r30, r20
    17d8:	f5 1f       	adc	r31, r21
    17da:	a4 0f       	add	r26, r20
    17dc:	b5 1f       	adc	r27, r21
    17de:	02 c0       	rjmp	.+4      	; 0x17e4 <memmove+0x18>
    17e0:	02 90       	ld	r0, -Z
    17e2:	0e 92       	st	-X, r0
    17e4:	41 50       	subi	r20, 0x01	; 1
    17e6:	50 40       	sbci	r21, 0x00	; 0
    17e8:	d8 f7       	brcc	.-10     	; 0x17e0 <memmove+0x14>
    17ea:	08 95       	ret
    17ec:	0c 94 dd 0b 	jmp	0x17ba	; 0x17ba <memcpy>

000017f0 <strcat>:
    17f0:	fb 01       	movw	r30, r22
    17f2:	dc 01       	movw	r26, r24
    17f4:	0d 90       	ld	r0, X+
    17f6:	00 20       	and	r0, r0
    17f8:	e9 f7       	brne	.-6      	; 0x17f4 <strcat+0x4>
    17fa:	11 97       	sbiw	r26, 0x01	; 1
    17fc:	01 90       	ld	r0, Z+
    17fe:	0d 92       	st	X+, r0
    1800:	00 20       	and	r0, r0
    1802:	e1 f7       	brne	.-8      	; 0x17fc <strcat+0xc>
    1804:	08 95       	ret

00001806 <strchr>:
    1806:	fc 01       	movw	r30, r24
    1808:	81 91       	ld	r24, Z+
    180a:	86 17       	cp	r24, r22
    180c:	21 f0       	breq	.+8      	; 0x1816 <strchr+0x10>
    180e:	88 23       	and	r24, r24
    1810:	d9 f7       	brne	.-10     	; 0x1808 <strchr+0x2>
    1812:	99 27       	eor	r25, r25
    1814:	08 95       	ret
    1816:	31 97       	sbiw	r30, 0x01	; 1
    1818:	cf 01       	movw	r24, r30
    181a:	08 95       	ret

0000181c <strcmp>:
    181c:	fb 01       	movw	r30, r22
    181e:	dc 01       	movw	r26, r24
    1820:	8d 91       	ld	r24, X+
    1822:	01 90       	ld	r0, Z+
    1824:	80 19       	sub	r24, r0
    1826:	01 10       	cpse	r0, r1
    1828:	d9 f3       	breq	.-10     	; 0x1820 <strcmp+0x4>
    182a:	99 0b       	sbc	r25, r25
    182c:	08 95       	ret

0000182e <strcpy>:
    182e:	fb 01       	movw	r30, r22
    1830:	dc 01       	movw	r26, r24
    1832:	01 90       	ld	r0, Z+
    1834:	0d 92       	st	X+, r0
    1836:	00 20       	and	r0, r0
    1838:	e1 f7       	brne	.-8      	; 0x1832 <strcpy+0x4>
    183a:	08 95       	ret

0000183c <strncmp>:
    183c:	fb 01       	movw	r30, r22
    183e:	dc 01       	movw	r26, r24
    1840:	41 50       	subi	r20, 0x01	; 1
    1842:	50 40       	sbci	r21, 0x00	; 0
    1844:	30 f0       	brcs	.+12     	; 0x1852 <strncmp+0x16>
    1846:	8d 91       	ld	r24, X+
    1848:	01 90       	ld	r0, Z+
    184a:	80 19       	sub	r24, r0
    184c:	19 f4       	brne	.+6      	; 0x1854 <strncmp+0x18>
    184e:	00 20       	and	r0, r0
    1850:	b9 f7       	brne	.-18     	; 0x1840 <strncmp+0x4>
    1852:	88 1b       	sub	r24, r24
    1854:	99 0b       	sbc	r25, r25
    1856:	08 95       	ret

00001858 <strncpy>:
    1858:	fb 01       	movw	r30, r22
    185a:	dc 01       	movw	r26, r24
    185c:	41 50       	subi	r20, 0x01	; 1
    185e:	50 40       	sbci	r21, 0x00	; 0
    1860:	48 f0       	brcs	.+18     	; 0x1874 <strncpy+0x1c>
    1862:	01 90       	ld	r0, Z+
    1864:	0d 92       	st	X+, r0
    1866:	00 20       	and	r0, r0
    1868:	c9 f7       	brne	.-14     	; 0x185c <strncpy+0x4>
    186a:	01 c0       	rjmp	.+2      	; 0x186e <strncpy+0x16>
    186c:	1d 92       	st	X+, r1
    186e:	41 50       	subi	r20, 0x01	; 1
    1870:	50 40       	sbci	r21, 0x00	; 0
    1872:	e0 f7       	brcc	.-8      	; 0x186c <strncpy+0x14>
    1874:	08 95       	ret

00001876 <strstr>:
    1876:	fb 01       	movw	r30, r22
    1878:	51 91       	ld	r21, Z+
    187a:	55 23       	and	r21, r21
    187c:	a9 f0       	breq	.+42     	; 0x18a8 <strstr+0x32>
    187e:	bf 01       	movw	r22, r30
    1880:	dc 01       	movw	r26, r24
    1882:	4d 91       	ld	r20, X+
    1884:	45 17       	cp	r20, r21
    1886:	41 11       	cpse	r20, r1
    1888:	e1 f7       	brne	.-8      	; 0x1882 <strstr+0xc>
    188a:	59 f4       	brne	.+22     	; 0x18a2 <strstr+0x2c>
    188c:	cd 01       	movw	r24, r26
    188e:	01 90       	ld	r0, Z+
    1890:	00 20       	and	r0, r0
    1892:	49 f0       	breq	.+18     	; 0x18a6 <strstr+0x30>
    1894:	4d 91       	ld	r20, X+
    1896:	40 15       	cp	r20, r0
    1898:	41 11       	cpse	r20, r1
    189a:	c9 f3       	breq	.-14     	; 0x188e <strstr+0x18>
    189c:	fb 01       	movw	r30, r22
    189e:	41 11       	cpse	r20, r1
    18a0:	ef cf       	rjmp	.-34     	; 0x1880 <strstr+0xa>
    18a2:	81 e0       	ldi	r24, 0x01	; 1
    18a4:	90 e0       	ldi	r25, 0x00	; 0
    18a6:	01 97       	sbiw	r24, 0x01	; 1
    18a8:	08 95       	ret

000018aa <sprintf>:
    18aa:	ae e0       	ldi	r26, 0x0E	; 14
    18ac:	b0 e0       	ldi	r27, 0x00	; 0
    18ae:	eb e5       	ldi	r30, 0x5B	; 91
    18b0:	fc e0       	ldi	r31, 0x0C	; 12
    18b2:	0c 94 16 0f 	jmp	0x1e2c	; 0x1e2c <__prologue_saves__+0x1c>
    18b6:	0d 89       	ldd	r16, Y+21	; 0x15
    18b8:	1e 89       	ldd	r17, Y+22	; 0x16
    18ba:	86 e0       	ldi	r24, 0x06	; 6
    18bc:	8c 83       	std	Y+4, r24	; 0x04
    18be:	1a 83       	std	Y+2, r17	; 0x02
    18c0:	09 83       	std	Y+1, r16	; 0x01
    18c2:	8f ef       	ldi	r24, 0xFF	; 255
    18c4:	9f e7       	ldi	r25, 0x7F	; 127
    18c6:	9e 83       	std	Y+6, r25	; 0x06
    18c8:	8d 83       	std	Y+5, r24	; 0x05
    18ca:	ae 01       	movw	r20, r28
    18cc:	47 5e       	subi	r20, 0xE7	; 231
    18ce:	5f 4f       	sbci	r21, 0xFF	; 255
    18d0:	6f 89       	ldd	r22, Y+23	; 0x17
    18d2:	78 8d       	ldd	r23, Y+24	; 0x18
    18d4:	ce 01       	movw	r24, r28
    18d6:	01 96       	adiw	r24, 0x01	; 1
    18d8:	0e 94 77 0c 	call	0x18ee	; 0x18ee <vfprintf>
    18dc:	ef 81       	ldd	r30, Y+7	; 0x07
    18de:	f8 85       	ldd	r31, Y+8	; 0x08
    18e0:	e0 0f       	add	r30, r16
    18e2:	f1 1f       	adc	r31, r17
    18e4:	10 82       	st	Z, r1
    18e6:	2e 96       	adiw	r28, 0x0e	; 14
    18e8:	e4 e0       	ldi	r30, 0x04	; 4
    18ea:	0c 94 32 0f 	jmp	0x1e64	; 0x1e64 <__epilogue_restores__+0x1c>

000018ee <vfprintf>:
    18ee:	ab e0       	ldi	r26, 0x0B	; 11
    18f0:	b0 e0       	ldi	r27, 0x00	; 0
    18f2:	ed e7       	ldi	r30, 0x7D	; 125
    18f4:	fc e0       	ldi	r31, 0x0C	; 12
    18f6:	0c 94 08 0f 	jmp	0x1e10	; 0x1e10 <__prologue_saves__>
    18fa:	6c 01       	movw	r12, r24
    18fc:	7b 01       	movw	r14, r22
    18fe:	8a 01       	movw	r16, r20
    1900:	fc 01       	movw	r30, r24
    1902:	17 82       	std	Z+7, r1	; 0x07
    1904:	16 82       	std	Z+6, r1	; 0x06
    1906:	83 81       	ldd	r24, Z+3	; 0x03
    1908:	81 ff       	sbrs	r24, 1
    190a:	cc c1       	rjmp	.+920    	; 0x1ca4 <vfprintf+0x3b6>
    190c:	ce 01       	movw	r24, r28
    190e:	01 96       	adiw	r24, 0x01	; 1
    1910:	3c 01       	movw	r6, r24
    1912:	f6 01       	movw	r30, r12
    1914:	93 81       	ldd	r25, Z+3	; 0x03
    1916:	f7 01       	movw	r30, r14
    1918:	93 fd       	sbrc	r25, 3
    191a:	85 91       	lpm	r24, Z+
    191c:	93 ff       	sbrs	r25, 3
    191e:	81 91       	ld	r24, Z+
    1920:	7f 01       	movw	r14, r30
    1922:	88 23       	and	r24, r24
    1924:	09 f4       	brne	.+2      	; 0x1928 <vfprintf+0x3a>
    1926:	ba c1       	rjmp	.+884    	; 0x1c9c <vfprintf+0x3ae>
    1928:	85 32       	cpi	r24, 0x25	; 37
    192a:	39 f4       	brne	.+14     	; 0x193a <vfprintf+0x4c>
    192c:	93 fd       	sbrc	r25, 3
    192e:	85 91       	lpm	r24, Z+
    1930:	93 ff       	sbrs	r25, 3
    1932:	81 91       	ld	r24, Z+
    1934:	7f 01       	movw	r14, r30
    1936:	85 32       	cpi	r24, 0x25	; 37
    1938:	29 f4       	brne	.+10     	; 0x1944 <vfprintf+0x56>
    193a:	b6 01       	movw	r22, r12
    193c:	90 e0       	ldi	r25, 0x00	; 0
    193e:	0e 94 6e 0e 	call	0x1cdc	; 0x1cdc <fputc>
    1942:	e7 cf       	rjmp	.-50     	; 0x1912 <vfprintf+0x24>
    1944:	91 2c       	mov	r9, r1
    1946:	21 2c       	mov	r2, r1
    1948:	31 2c       	mov	r3, r1
    194a:	ff e1       	ldi	r31, 0x1F	; 31
    194c:	f3 15       	cp	r31, r3
    194e:	d8 f0       	brcs	.+54     	; 0x1986 <vfprintf+0x98>
    1950:	8b 32       	cpi	r24, 0x2B	; 43
    1952:	79 f0       	breq	.+30     	; 0x1972 <vfprintf+0x84>
    1954:	38 f4       	brcc	.+14     	; 0x1964 <vfprintf+0x76>
    1956:	80 32       	cpi	r24, 0x20	; 32
    1958:	79 f0       	breq	.+30     	; 0x1978 <vfprintf+0x8a>
    195a:	83 32       	cpi	r24, 0x23	; 35
    195c:	a1 f4       	brne	.+40     	; 0x1986 <vfprintf+0x98>
    195e:	23 2d       	mov	r18, r3
    1960:	20 61       	ori	r18, 0x10	; 16
    1962:	1d c0       	rjmp	.+58     	; 0x199e <vfprintf+0xb0>
    1964:	8d 32       	cpi	r24, 0x2D	; 45
    1966:	61 f0       	breq	.+24     	; 0x1980 <vfprintf+0x92>
    1968:	80 33       	cpi	r24, 0x30	; 48
    196a:	69 f4       	brne	.+26     	; 0x1986 <vfprintf+0x98>
    196c:	23 2d       	mov	r18, r3
    196e:	21 60       	ori	r18, 0x01	; 1
    1970:	16 c0       	rjmp	.+44     	; 0x199e <vfprintf+0xb0>
    1972:	83 2d       	mov	r24, r3
    1974:	82 60       	ori	r24, 0x02	; 2
    1976:	38 2e       	mov	r3, r24
    1978:	e3 2d       	mov	r30, r3
    197a:	e4 60       	ori	r30, 0x04	; 4
    197c:	3e 2e       	mov	r3, r30
    197e:	2a c0       	rjmp	.+84     	; 0x19d4 <vfprintf+0xe6>
    1980:	f3 2d       	mov	r31, r3
    1982:	f8 60       	ori	r31, 0x08	; 8
    1984:	1d c0       	rjmp	.+58     	; 0x19c0 <vfprintf+0xd2>
    1986:	37 fc       	sbrc	r3, 7
    1988:	2d c0       	rjmp	.+90     	; 0x19e4 <vfprintf+0xf6>
    198a:	20 ed       	ldi	r18, 0xD0	; 208
    198c:	28 0f       	add	r18, r24
    198e:	2a 30       	cpi	r18, 0x0A	; 10
    1990:	40 f0       	brcs	.+16     	; 0x19a2 <vfprintf+0xb4>
    1992:	8e 32       	cpi	r24, 0x2E	; 46
    1994:	b9 f4       	brne	.+46     	; 0x19c4 <vfprintf+0xd6>
    1996:	36 fc       	sbrc	r3, 6
    1998:	81 c1       	rjmp	.+770    	; 0x1c9c <vfprintf+0x3ae>
    199a:	23 2d       	mov	r18, r3
    199c:	20 64       	ori	r18, 0x40	; 64
    199e:	32 2e       	mov	r3, r18
    19a0:	19 c0       	rjmp	.+50     	; 0x19d4 <vfprintf+0xe6>
    19a2:	36 fe       	sbrs	r3, 6
    19a4:	06 c0       	rjmp	.+12     	; 0x19b2 <vfprintf+0xc4>
    19a6:	8a e0       	ldi	r24, 0x0A	; 10
    19a8:	98 9e       	mul	r9, r24
    19aa:	20 0d       	add	r18, r0
    19ac:	11 24       	eor	r1, r1
    19ae:	92 2e       	mov	r9, r18
    19b0:	11 c0       	rjmp	.+34     	; 0x19d4 <vfprintf+0xe6>
    19b2:	ea e0       	ldi	r30, 0x0A	; 10
    19b4:	2e 9e       	mul	r2, r30
    19b6:	20 0d       	add	r18, r0
    19b8:	11 24       	eor	r1, r1
    19ba:	22 2e       	mov	r2, r18
    19bc:	f3 2d       	mov	r31, r3
    19be:	f0 62       	ori	r31, 0x20	; 32
    19c0:	3f 2e       	mov	r3, r31
    19c2:	08 c0       	rjmp	.+16     	; 0x19d4 <vfprintf+0xe6>
    19c4:	8c 36       	cpi	r24, 0x6C	; 108
    19c6:	21 f4       	brne	.+8      	; 0x19d0 <vfprintf+0xe2>
    19c8:	83 2d       	mov	r24, r3
    19ca:	80 68       	ori	r24, 0x80	; 128
    19cc:	38 2e       	mov	r3, r24
    19ce:	02 c0       	rjmp	.+4      	; 0x19d4 <vfprintf+0xe6>
    19d0:	88 36       	cpi	r24, 0x68	; 104
    19d2:	41 f4       	brne	.+16     	; 0x19e4 <vfprintf+0xf6>
    19d4:	f7 01       	movw	r30, r14
    19d6:	93 fd       	sbrc	r25, 3
    19d8:	85 91       	lpm	r24, Z+
    19da:	93 ff       	sbrs	r25, 3
    19dc:	81 91       	ld	r24, Z+
    19de:	7f 01       	movw	r14, r30
    19e0:	81 11       	cpse	r24, r1
    19e2:	b3 cf       	rjmp	.-154    	; 0x194a <vfprintf+0x5c>
    19e4:	98 2f       	mov	r25, r24
    19e6:	9f 7d       	andi	r25, 0xDF	; 223
    19e8:	95 54       	subi	r25, 0x45	; 69
    19ea:	93 30       	cpi	r25, 0x03	; 3
    19ec:	28 f4       	brcc	.+10     	; 0x19f8 <vfprintf+0x10a>
    19ee:	0c 5f       	subi	r16, 0xFC	; 252
    19f0:	1f 4f       	sbci	r17, 0xFF	; 255
    19f2:	9f e3       	ldi	r25, 0x3F	; 63
    19f4:	99 83       	std	Y+1, r25	; 0x01
    19f6:	0d c0       	rjmp	.+26     	; 0x1a12 <vfprintf+0x124>
    19f8:	83 36       	cpi	r24, 0x63	; 99
    19fa:	31 f0       	breq	.+12     	; 0x1a08 <vfprintf+0x11a>
    19fc:	83 37       	cpi	r24, 0x73	; 115
    19fe:	71 f0       	breq	.+28     	; 0x1a1c <vfprintf+0x12e>
    1a00:	83 35       	cpi	r24, 0x53	; 83
    1a02:	09 f0       	breq	.+2      	; 0x1a06 <vfprintf+0x118>
    1a04:	59 c0       	rjmp	.+178    	; 0x1ab8 <vfprintf+0x1ca>
    1a06:	21 c0       	rjmp	.+66     	; 0x1a4a <vfprintf+0x15c>
    1a08:	f8 01       	movw	r30, r16
    1a0a:	80 81       	ld	r24, Z
    1a0c:	89 83       	std	Y+1, r24	; 0x01
    1a0e:	0e 5f       	subi	r16, 0xFE	; 254
    1a10:	1f 4f       	sbci	r17, 0xFF	; 255
    1a12:	88 24       	eor	r8, r8
    1a14:	83 94       	inc	r8
    1a16:	91 2c       	mov	r9, r1
    1a18:	53 01       	movw	r10, r6
    1a1a:	13 c0       	rjmp	.+38     	; 0x1a42 <vfprintf+0x154>
    1a1c:	28 01       	movw	r4, r16
    1a1e:	f2 e0       	ldi	r31, 0x02	; 2
    1a20:	4f 0e       	add	r4, r31
    1a22:	51 1c       	adc	r5, r1
    1a24:	f8 01       	movw	r30, r16
    1a26:	a0 80       	ld	r10, Z
    1a28:	b1 80       	ldd	r11, Z+1	; 0x01
    1a2a:	36 fe       	sbrs	r3, 6
    1a2c:	03 c0       	rjmp	.+6      	; 0x1a34 <vfprintf+0x146>
    1a2e:	69 2d       	mov	r22, r9
    1a30:	70 e0       	ldi	r23, 0x00	; 0
    1a32:	02 c0       	rjmp	.+4      	; 0x1a38 <vfprintf+0x14a>
    1a34:	6f ef       	ldi	r22, 0xFF	; 255
    1a36:	7f ef       	ldi	r23, 0xFF	; 255
    1a38:	c5 01       	movw	r24, r10
    1a3a:	0e 94 63 0e 	call	0x1cc6	; 0x1cc6 <strnlen>
    1a3e:	4c 01       	movw	r8, r24
    1a40:	82 01       	movw	r16, r4
    1a42:	f3 2d       	mov	r31, r3
    1a44:	ff 77       	andi	r31, 0x7F	; 127
    1a46:	3f 2e       	mov	r3, r31
    1a48:	16 c0       	rjmp	.+44     	; 0x1a76 <vfprintf+0x188>
    1a4a:	28 01       	movw	r4, r16
    1a4c:	22 e0       	ldi	r18, 0x02	; 2
    1a4e:	42 0e       	add	r4, r18
    1a50:	51 1c       	adc	r5, r1
    1a52:	f8 01       	movw	r30, r16
    1a54:	a0 80       	ld	r10, Z
    1a56:	b1 80       	ldd	r11, Z+1	; 0x01
    1a58:	36 fe       	sbrs	r3, 6
    1a5a:	03 c0       	rjmp	.+6      	; 0x1a62 <vfprintf+0x174>
    1a5c:	69 2d       	mov	r22, r9
    1a5e:	70 e0       	ldi	r23, 0x00	; 0
    1a60:	02 c0       	rjmp	.+4      	; 0x1a66 <vfprintf+0x178>
    1a62:	6f ef       	ldi	r22, 0xFF	; 255
    1a64:	7f ef       	ldi	r23, 0xFF	; 255
    1a66:	c5 01       	movw	r24, r10
    1a68:	0e 94 58 0e 	call	0x1cb0	; 0x1cb0 <strnlen_P>
    1a6c:	4c 01       	movw	r8, r24
    1a6e:	f3 2d       	mov	r31, r3
    1a70:	f0 68       	ori	r31, 0x80	; 128
    1a72:	3f 2e       	mov	r3, r31
    1a74:	82 01       	movw	r16, r4
    1a76:	33 fc       	sbrc	r3, 3
    1a78:	1b c0       	rjmp	.+54     	; 0x1ab0 <vfprintf+0x1c2>
    1a7a:	82 2d       	mov	r24, r2
    1a7c:	90 e0       	ldi	r25, 0x00	; 0
    1a7e:	88 16       	cp	r8, r24
    1a80:	99 06       	cpc	r9, r25
    1a82:	b0 f4       	brcc	.+44     	; 0x1ab0 <vfprintf+0x1c2>
    1a84:	b6 01       	movw	r22, r12
    1a86:	80 e2       	ldi	r24, 0x20	; 32
    1a88:	90 e0       	ldi	r25, 0x00	; 0
    1a8a:	0e 94 6e 0e 	call	0x1cdc	; 0x1cdc <fputc>
    1a8e:	2a 94       	dec	r2
    1a90:	f4 cf       	rjmp	.-24     	; 0x1a7a <vfprintf+0x18c>
    1a92:	f5 01       	movw	r30, r10
    1a94:	37 fc       	sbrc	r3, 7
    1a96:	85 91       	lpm	r24, Z+
    1a98:	37 fe       	sbrs	r3, 7
    1a9a:	81 91       	ld	r24, Z+
    1a9c:	5f 01       	movw	r10, r30
    1a9e:	b6 01       	movw	r22, r12
    1aa0:	90 e0       	ldi	r25, 0x00	; 0
    1aa2:	0e 94 6e 0e 	call	0x1cdc	; 0x1cdc <fputc>
    1aa6:	21 10       	cpse	r2, r1
    1aa8:	2a 94       	dec	r2
    1aaa:	21 e0       	ldi	r18, 0x01	; 1
    1aac:	82 1a       	sub	r8, r18
    1aae:	91 08       	sbc	r9, r1
    1ab0:	81 14       	cp	r8, r1
    1ab2:	91 04       	cpc	r9, r1
    1ab4:	71 f7       	brne	.-36     	; 0x1a92 <vfprintf+0x1a4>
    1ab6:	e8 c0       	rjmp	.+464    	; 0x1c88 <vfprintf+0x39a>
    1ab8:	84 36       	cpi	r24, 0x64	; 100
    1aba:	11 f0       	breq	.+4      	; 0x1ac0 <vfprintf+0x1d2>
    1abc:	89 36       	cpi	r24, 0x69	; 105
    1abe:	41 f5       	brne	.+80     	; 0x1b10 <vfprintf+0x222>
    1ac0:	f8 01       	movw	r30, r16
    1ac2:	37 fe       	sbrs	r3, 7
    1ac4:	07 c0       	rjmp	.+14     	; 0x1ad4 <vfprintf+0x1e6>
    1ac6:	60 81       	ld	r22, Z
    1ac8:	71 81       	ldd	r23, Z+1	; 0x01
    1aca:	82 81       	ldd	r24, Z+2	; 0x02
    1acc:	93 81       	ldd	r25, Z+3	; 0x03
    1ace:	0c 5f       	subi	r16, 0xFC	; 252
    1ad0:	1f 4f       	sbci	r17, 0xFF	; 255
    1ad2:	08 c0       	rjmp	.+16     	; 0x1ae4 <vfprintf+0x1f6>
    1ad4:	60 81       	ld	r22, Z
    1ad6:	71 81       	ldd	r23, Z+1	; 0x01
    1ad8:	07 2e       	mov	r0, r23
    1ada:	00 0c       	add	r0, r0
    1adc:	88 0b       	sbc	r24, r24
    1ade:	99 0b       	sbc	r25, r25
    1ae0:	0e 5f       	subi	r16, 0xFE	; 254
    1ae2:	1f 4f       	sbci	r17, 0xFF	; 255
    1ae4:	f3 2d       	mov	r31, r3
    1ae6:	ff 76       	andi	r31, 0x6F	; 111
    1ae8:	3f 2e       	mov	r3, r31
    1aea:	97 ff       	sbrs	r25, 7
    1aec:	09 c0       	rjmp	.+18     	; 0x1b00 <vfprintf+0x212>
    1aee:	90 95       	com	r25
    1af0:	80 95       	com	r24
    1af2:	70 95       	com	r23
    1af4:	61 95       	neg	r22
    1af6:	7f 4f       	sbci	r23, 0xFF	; 255
    1af8:	8f 4f       	sbci	r24, 0xFF	; 255
    1afa:	9f 4f       	sbci	r25, 0xFF	; 255
    1afc:	f0 68       	ori	r31, 0x80	; 128
    1afe:	3f 2e       	mov	r3, r31
    1b00:	2a e0       	ldi	r18, 0x0A	; 10
    1b02:	30 e0       	ldi	r19, 0x00	; 0
    1b04:	a3 01       	movw	r20, r6
    1b06:	0e 94 aa 0e 	call	0x1d54	; 0x1d54 <__ultoa_invert>
    1b0a:	88 2e       	mov	r8, r24
    1b0c:	86 18       	sub	r8, r6
    1b0e:	45 c0       	rjmp	.+138    	; 0x1b9a <vfprintf+0x2ac>
    1b10:	85 37       	cpi	r24, 0x75	; 117
    1b12:	31 f4       	brne	.+12     	; 0x1b20 <vfprintf+0x232>
    1b14:	23 2d       	mov	r18, r3
    1b16:	2f 7e       	andi	r18, 0xEF	; 239
    1b18:	b2 2e       	mov	r11, r18
    1b1a:	2a e0       	ldi	r18, 0x0A	; 10
    1b1c:	30 e0       	ldi	r19, 0x00	; 0
    1b1e:	25 c0       	rjmp	.+74     	; 0x1b6a <vfprintf+0x27c>
    1b20:	93 2d       	mov	r25, r3
    1b22:	99 7f       	andi	r25, 0xF9	; 249
    1b24:	b9 2e       	mov	r11, r25
    1b26:	8f 36       	cpi	r24, 0x6F	; 111
    1b28:	c1 f0       	breq	.+48     	; 0x1b5a <vfprintf+0x26c>
    1b2a:	18 f4       	brcc	.+6      	; 0x1b32 <vfprintf+0x244>
    1b2c:	88 35       	cpi	r24, 0x58	; 88
    1b2e:	79 f0       	breq	.+30     	; 0x1b4e <vfprintf+0x260>
    1b30:	b5 c0       	rjmp	.+362    	; 0x1c9c <vfprintf+0x3ae>
    1b32:	80 37       	cpi	r24, 0x70	; 112
    1b34:	19 f0       	breq	.+6      	; 0x1b3c <vfprintf+0x24e>
    1b36:	88 37       	cpi	r24, 0x78	; 120
    1b38:	21 f0       	breq	.+8      	; 0x1b42 <vfprintf+0x254>
    1b3a:	b0 c0       	rjmp	.+352    	; 0x1c9c <vfprintf+0x3ae>
    1b3c:	e9 2f       	mov	r30, r25
    1b3e:	e0 61       	ori	r30, 0x10	; 16
    1b40:	be 2e       	mov	r11, r30
    1b42:	b4 fe       	sbrs	r11, 4
    1b44:	0d c0       	rjmp	.+26     	; 0x1b60 <vfprintf+0x272>
    1b46:	fb 2d       	mov	r31, r11
    1b48:	f4 60       	ori	r31, 0x04	; 4
    1b4a:	bf 2e       	mov	r11, r31
    1b4c:	09 c0       	rjmp	.+18     	; 0x1b60 <vfprintf+0x272>
    1b4e:	34 fe       	sbrs	r3, 4
    1b50:	0a c0       	rjmp	.+20     	; 0x1b66 <vfprintf+0x278>
    1b52:	29 2f       	mov	r18, r25
    1b54:	26 60       	ori	r18, 0x06	; 6
    1b56:	b2 2e       	mov	r11, r18
    1b58:	06 c0       	rjmp	.+12     	; 0x1b66 <vfprintf+0x278>
    1b5a:	28 e0       	ldi	r18, 0x08	; 8
    1b5c:	30 e0       	ldi	r19, 0x00	; 0
    1b5e:	05 c0       	rjmp	.+10     	; 0x1b6a <vfprintf+0x27c>
    1b60:	20 e1       	ldi	r18, 0x10	; 16
    1b62:	30 e0       	ldi	r19, 0x00	; 0
    1b64:	02 c0       	rjmp	.+4      	; 0x1b6a <vfprintf+0x27c>
    1b66:	20 e1       	ldi	r18, 0x10	; 16
    1b68:	32 e0       	ldi	r19, 0x02	; 2
    1b6a:	f8 01       	movw	r30, r16
    1b6c:	b7 fe       	sbrs	r11, 7
    1b6e:	07 c0       	rjmp	.+14     	; 0x1b7e <vfprintf+0x290>
    1b70:	60 81       	ld	r22, Z
    1b72:	71 81       	ldd	r23, Z+1	; 0x01
    1b74:	82 81       	ldd	r24, Z+2	; 0x02
    1b76:	93 81       	ldd	r25, Z+3	; 0x03
    1b78:	0c 5f       	subi	r16, 0xFC	; 252
    1b7a:	1f 4f       	sbci	r17, 0xFF	; 255
    1b7c:	06 c0       	rjmp	.+12     	; 0x1b8a <vfprintf+0x29c>
    1b7e:	60 81       	ld	r22, Z
    1b80:	71 81       	ldd	r23, Z+1	; 0x01
    1b82:	80 e0       	ldi	r24, 0x00	; 0
    1b84:	90 e0       	ldi	r25, 0x00	; 0
    1b86:	0e 5f       	subi	r16, 0xFE	; 254
    1b88:	1f 4f       	sbci	r17, 0xFF	; 255
    1b8a:	a3 01       	movw	r20, r6
    1b8c:	0e 94 aa 0e 	call	0x1d54	; 0x1d54 <__ultoa_invert>
    1b90:	88 2e       	mov	r8, r24
    1b92:	86 18       	sub	r8, r6
    1b94:	fb 2d       	mov	r31, r11
    1b96:	ff 77       	andi	r31, 0x7F	; 127
    1b98:	3f 2e       	mov	r3, r31
    1b9a:	36 fe       	sbrs	r3, 6
    1b9c:	0d c0       	rjmp	.+26     	; 0x1bb8 <vfprintf+0x2ca>
    1b9e:	23 2d       	mov	r18, r3
    1ba0:	2e 7f       	andi	r18, 0xFE	; 254
    1ba2:	a2 2e       	mov	r10, r18
    1ba4:	89 14       	cp	r8, r9
    1ba6:	58 f4       	brcc	.+22     	; 0x1bbe <vfprintf+0x2d0>
    1ba8:	34 fe       	sbrs	r3, 4
    1baa:	0b c0       	rjmp	.+22     	; 0x1bc2 <vfprintf+0x2d4>
    1bac:	32 fc       	sbrc	r3, 2
    1bae:	09 c0       	rjmp	.+18     	; 0x1bc2 <vfprintf+0x2d4>
    1bb0:	83 2d       	mov	r24, r3
    1bb2:	8e 7e       	andi	r24, 0xEE	; 238
    1bb4:	a8 2e       	mov	r10, r24
    1bb6:	05 c0       	rjmp	.+10     	; 0x1bc2 <vfprintf+0x2d4>
    1bb8:	b8 2c       	mov	r11, r8
    1bba:	a3 2c       	mov	r10, r3
    1bbc:	03 c0       	rjmp	.+6      	; 0x1bc4 <vfprintf+0x2d6>
    1bbe:	b8 2c       	mov	r11, r8
    1bc0:	01 c0       	rjmp	.+2      	; 0x1bc4 <vfprintf+0x2d6>
    1bc2:	b9 2c       	mov	r11, r9
    1bc4:	a4 fe       	sbrs	r10, 4
    1bc6:	0f c0       	rjmp	.+30     	; 0x1be6 <vfprintf+0x2f8>
    1bc8:	fe 01       	movw	r30, r28
    1bca:	e8 0d       	add	r30, r8
    1bcc:	f1 1d       	adc	r31, r1
    1bce:	80 81       	ld	r24, Z
    1bd0:	80 33       	cpi	r24, 0x30	; 48
    1bd2:	21 f4       	brne	.+8      	; 0x1bdc <vfprintf+0x2ee>
    1bd4:	9a 2d       	mov	r25, r10
    1bd6:	99 7e       	andi	r25, 0xE9	; 233
    1bd8:	a9 2e       	mov	r10, r25
    1bda:	09 c0       	rjmp	.+18     	; 0x1bee <vfprintf+0x300>
    1bdc:	a2 fe       	sbrs	r10, 2
    1bde:	06 c0       	rjmp	.+12     	; 0x1bec <vfprintf+0x2fe>
    1be0:	b3 94       	inc	r11
    1be2:	b3 94       	inc	r11
    1be4:	04 c0       	rjmp	.+8      	; 0x1bee <vfprintf+0x300>
    1be6:	8a 2d       	mov	r24, r10
    1be8:	86 78       	andi	r24, 0x86	; 134
    1bea:	09 f0       	breq	.+2      	; 0x1bee <vfprintf+0x300>
    1bec:	b3 94       	inc	r11
    1bee:	a3 fc       	sbrc	r10, 3
    1bf0:	11 c0       	rjmp	.+34     	; 0x1c14 <vfprintf+0x326>
    1bf2:	a0 fe       	sbrs	r10, 0
    1bf4:	06 c0       	rjmp	.+12     	; 0x1c02 <vfprintf+0x314>
    1bf6:	b2 14       	cp	r11, r2
    1bf8:	88 f4       	brcc	.+34     	; 0x1c1c <vfprintf+0x32e>
    1bfa:	28 0c       	add	r2, r8
    1bfc:	92 2c       	mov	r9, r2
    1bfe:	9b 18       	sub	r9, r11
    1c00:	0e c0       	rjmp	.+28     	; 0x1c1e <vfprintf+0x330>
    1c02:	b2 14       	cp	r11, r2
    1c04:	60 f4       	brcc	.+24     	; 0x1c1e <vfprintf+0x330>
    1c06:	b6 01       	movw	r22, r12
    1c08:	80 e2       	ldi	r24, 0x20	; 32
    1c0a:	90 e0       	ldi	r25, 0x00	; 0
    1c0c:	0e 94 6e 0e 	call	0x1cdc	; 0x1cdc <fputc>
    1c10:	b3 94       	inc	r11
    1c12:	f7 cf       	rjmp	.-18     	; 0x1c02 <vfprintf+0x314>
    1c14:	b2 14       	cp	r11, r2
    1c16:	18 f4       	brcc	.+6      	; 0x1c1e <vfprintf+0x330>
    1c18:	2b 18       	sub	r2, r11
    1c1a:	02 c0       	rjmp	.+4      	; 0x1c20 <vfprintf+0x332>
    1c1c:	98 2c       	mov	r9, r8
    1c1e:	21 2c       	mov	r2, r1
    1c20:	a4 fe       	sbrs	r10, 4
    1c22:	10 c0       	rjmp	.+32     	; 0x1c44 <vfprintf+0x356>
    1c24:	b6 01       	movw	r22, r12
    1c26:	80 e3       	ldi	r24, 0x30	; 48
    1c28:	90 e0       	ldi	r25, 0x00	; 0
    1c2a:	0e 94 6e 0e 	call	0x1cdc	; 0x1cdc <fputc>
    1c2e:	a2 fe       	sbrs	r10, 2
    1c30:	17 c0       	rjmp	.+46     	; 0x1c60 <vfprintf+0x372>
    1c32:	a1 fc       	sbrc	r10, 1
    1c34:	03 c0       	rjmp	.+6      	; 0x1c3c <vfprintf+0x34e>
    1c36:	88 e7       	ldi	r24, 0x78	; 120
    1c38:	90 e0       	ldi	r25, 0x00	; 0
    1c3a:	02 c0       	rjmp	.+4      	; 0x1c40 <vfprintf+0x352>
    1c3c:	88 e5       	ldi	r24, 0x58	; 88
    1c3e:	90 e0       	ldi	r25, 0x00	; 0
    1c40:	b6 01       	movw	r22, r12
    1c42:	0c c0       	rjmp	.+24     	; 0x1c5c <vfprintf+0x36e>
    1c44:	8a 2d       	mov	r24, r10
    1c46:	86 78       	andi	r24, 0x86	; 134
    1c48:	59 f0       	breq	.+22     	; 0x1c60 <vfprintf+0x372>
    1c4a:	a1 fe       	sbrs	r10, 1
    1c4c:	02 c0       	rjmp	.+4      	; 0x1c52 <vfprintf+0x364>
    1c4e:	8b e2       	ldi	r24, 0x2B	; 43
    1c50:	01 c0       	rjmp	.+2      	; 0x1c54 <vfprintf+0x366>
    1c52:	80 e2       	ldi	r24, 0x20	; 32
    1c54:	a7 fc       	sbrc	r10, 7
    1c56:	8d e2       	ldi	r24, 0x2D	; 45
    1c58:	b6 01       	movw	r22, r12
    1c5a:	90 e0       	ldi	r25, 0x00	; 0
    1c5c:	0e 94 6e 0e 	call	0x1cdc	; 0x1cdc <fputc>
    1c60:	89 14       	cp	r8, r9
    1c62:	38 f4       	brcc	.+14     	; 0x1c72 <vfprintf+0x384>
    1c64:	b6 01       	movw	r22, r12
    1c66:	80 e3       	ldi	r24, 0x30	; 48
    1c68:	90 e0       	ldi	r25, 0x00	; 0
    1c6a:	0e 94 6e 0e 	call	0x1cdc	; 0x1cdc <fputc>
    1c6e:	9a 94       	dec	r9
    1c70:	f7 cf       	rjmp	.-18     	; 0x1c60 <vfprintf+0x372>
    1c72:	8a 94       	dec	r8
    1c74:	f3 01       	movw	r30, r6
    1c76:	e8 0d       	add	r30, r8
    1c78:	f1 1d       	adc	r31, r1
    1c7a:	80 81       	ld	r24, Z
    1c7c:	b6 01       	movw	r22, r12
    1c7e:	90 e0       	ldi	r25, 0x00	; 0
    1c80:	0e 94 6e 0e 	call	0x1cdc	; 0x1cdc <fputc>
    1c84:	81 10       	cpse	r8, r1
    1c86:	f5 cf       	rjmp	.-22     	; 0x1c72 <vfprintf+0x384>
    1c88:	22 20       	and	r2, r2
    1c8a:	09 f4       	brne	.+2      	; 0x1c8e <vfprintf+0x3a0>
    1c8c:	42 ce       	rjmp	.-892    	; 0x1912 <vfprintf+0x24>
    1c8e:	b6 01       	movw	r22, r12
    1c90:	80 e2       	ldi	r24, 0x20	; 32
    1c92:	90 e0       	ldi	r25, 0x00	; 0
    1c94:	0e 94 6e 0e 	call	0x1cdc	; 0x1cdc <fputc>
    1c98:	2a 94       	dec	r2
    1c9a:	f6 cf       	rjmp	.-20     	; 0x1c88 <vfprintf+0x39a>
    1c9c:	f6 01       	movw	r30, r12
    1c9e:	86 81       	ldd	r24, Z+6	; 0x06
    1ca0:	97 81       	ldd	r25, Z+7	; 0x07
    1ca2:	02 c0       	rjmp	.+4      	; 0x1ca8 <vfprintf+0x3ba>
    1ca4:	8f ef       	ldi	r24, 0xFF	; 255
    1ca6:	9f ef       	ldi	r25, 0xFF	; 255
    1ca8:	2b 96       	adiw	r28, 0x0b	; 11
    1caa:	e2 e1       	ldi	r30, 0x12	; 18
    1cac:	0c 94 24 0f 	jmp	0x1e48	; 0x1e48 <__epilogue_restores__>

00001cb0 <strnlen_P>:
    1cb0:	fc 01       	movw	r30, r24
    1cb2:	05 90       	lpm	r0, Z+
    1cb4:	61 50       	subi	r22, 0x01	; 1
    1cb6:	70 40       	sbci	r23, 0x00	; 0
    1cb8:	01 10       	cpse	r0, r1
    1cba:	d8 f7       	brcc	.-10     	; 0x1cb2 <strnlen_P+0x2>
    1cbc:	80 95       	com	r24
    1cbe:	90 95       	com	r25
    1cc0:	8e 0f       	add	r24, r30
    1cc2:	9f 1f       	adc	r25, r31
    1cc4:	08 95       	ret

00001cc6 <strnlen>:
    1cc6:	fc 01       	movw	r30, r24
    1cc8:	61 50       	subi	r22, 0x01	; 1
    1cca:	70 40       	sbci	r23, 0x00	; 0
    1ccc:	01 90       	ld	r0, Z+
    1cce:	01 10       	cpse	r0, r1
    1cd0:	d8 f7       	brcc	.-10     	; 0x1cc8 <strnlen+0x2>
    1cd2:	80 95       	com	r24
    1cd4:	90 95       	com	r25
    1cd6:	8e 0f       	add	r24, r30
    1cd8:	9f 1f       	adc	r25, r31
    1cda:	08 95       	ret

00001cdc <fputc>:
    1cdc:	0f 93       	push	r16
    1cde:	1f 93       	push	r17
    1ce0:	cf 93       	push	r28
    1ce2:	df 93       	push	r29
    1ce4:	fb 01       	movw	r30, r22
    1ce6:	23 81       	ldd	r18, Z+3	; 0x03
    1ce8:	21 fd       	sbrc	r18, 1
    1cea:	03 c0       	rjmp	.+6      	; 0x1cf2 <fputc+0x16>
    1cec:	8f ef       	ldi	r24, 0xFF	; 255
    1cee:	9f ef       	ldi	r25, 0xFF	; 255
    1cf0:	2c c0       	rjmp	.+88     	; 0x1d4a <fputc+0x6e>
    1cf2:	22 ff       	sbrs	r18, 2
    1cf4:	16 c0       	rjmp	.+44     	; 0x1d22 <fputc+0x46>
    1cf6:	46 81       	ldd	r20, Z+6	; 0x06
    1cf8:	57 81       	ldd	r21, Z+7	; 0x07
    1cfa:	24 81       	ldd	r18, Z+4	; 0x04
    1cfc:	35 81       	ldd	r19, Z+5	; 0x05
    1cfe:	42 17       	cp	r20, r18
    1d00:	53 07       	cpc	r21, r19
    1d02:	44 f4       	brge	.+16     	; 0x1d14 <fputc+0x38>
    1d04:	a0 81       	ld	r26, Z
    1d06:	b1 81       	ldd	r27, Z+1	; 0x01
    1d08:	9d 01       	movw	r18, r26
    1d0a:	2f 5f       	subi	r18, 0xFF	; 255
    1d0c:	3f 4f       	sbci	r19, 0xFF	; 255
    1d0e:	31 83       	std	Z+1, r19	; 0x01
    1d10:	20 83       	st	Z, r18
    1d12:	8c 93       	st	X, r24
    1d14:	26 81       	ldd	r18, Z+6	; 0x06
    1d16:	37 81       	ldd	r19, Z+7	; 0x07
    1d18:	2f 5f       	subi	r18, 0xFF	; 255
    1d1a:	3f 4f       	sbci	r19, 0xFF	; 255
    1d1c:	37 83       	std	Z+7, r19	; 0x07
    1d1e:	26 83       	std	Z+6, r18	; 0x06
    1d20:	14 c0       	rjmp	.+40     	; 0x1d4a <fputc+0x6e>
    1d22:	8b 01       	movw	r16, r22
    1d24:	ec 01       	movw	r28, r24
    1d26:	fb 01       	movw	r30, r22
    1d28:	00 84       	ldd	r0, Z+8	; 0x08
    1d2a:	f1 85       	ldd	r31, Z+9	; 0x09
    1d2c:	e0 2d       	mov	r30, r0
    1d2e:	09 95       	icall
    1d30:	89 2b       	or	r24, r25
    1d32:	e1 f6       	brne	.-72     	; 0x1cec <fputc+0x10>
    1d34:	d8 01       	movw	r26, r16
    1d36:	16 96       	adiw	r26, 0x06	; 6
    1d38:	8d 91       	ld	r24, X+
    1d3a:	9c 91       	ld	r25, X
    1d3c:	17 97       	sbiw	r26, 0x07	; 7
    1d3e:	01 96       	adiw	r24, 0x01	; 1
    1d40:	17 96       	adiw	r26, 0x07	; 7
    1d42:	9c 93       	st	X, r25
    1d44:	8e 93       	st	-X, r24
    1d46:	16 97       	sbiw	r26, 0x06	; 6
    1d48:	ce 01       	movw	r24, r28
    1d4a:	df 91       	pop	r29
    1d4c:	cf 91       	pop	r28
    1d4e:	1f 91       	pop	r17
    1d50:	0f 91       	pop	r16
    1d52:	08 95       	ret

00001d54 <__ultoa_invert>:
    1d54:	fa 01       	movw	r30, r20
    1d56:	aa 27       	eor	r26, r26
    1d58:	28 30       	cpi	r18, 0x08	; 8
    1d5a:	51 f1       	breq	.+84     	; 0x1db0 <__ultoa_invert+0x5c>
    1d5c:	20 31       	cpi	r18, 0x10	; 16
    1d5e:	81 f1       	breq	.+96     	; 0x1dc0 <__ultoa_invert+0x6c>
    1d60:	e8 94       	clt
    1d62:	6f 93       	push	r22
    1d64:	6e 7f       	andi	r22, 0xFE	; 254
    1d66:	6e 5f       	subi	r22, 0xFE	; 254
    1d68:	7f 4f       	sbci	r23, 0xFF	; 255
    1d6a:	8f 4f       	sbci	r24, 0xFF	; 255
    1d6c:	9f 4f       	sbci	r25, 0xFF	; 255
    1d6e:	af 4f       	sbci	r26, 0xFF	; 255
    1d70:	b1 e0       	ldi	r27, 0x01	; 1
    1d72:	3e d0       	rcall	.+124    	; 0x1df0 <__ultoa_invert+0x9c>
    1d74:	b4 e0       	ldi	r27, 0x04	; 4
    1d76:	3c d0       	rcall	.+120    	; 0x1df0 <__ultoa_invert+0x9c>
    1d78:	67 0f       	add	r22, r23
    1d7a:	78 1f       	adc	r23, r24
    1d7c:	89 1f       	adc	r24, r25
    1d7e:	9a 1f       	adc	r25, r26
    1d80:	a1 1d       	adc	r26, r1
    1d82:	68 0f       	add	r22, r24
    1d84:	79 1f       	adc	r23, r25
    1d86:	8a 1f       	adc	r24, r26
    1d88:	91 1d       	adc	r25, r1
    1d8a:	a1 1d       	adc	r26, r1
    1d8c:	6a 0f       	add	r22, r26
    1d8e:	71 1d       	adc	r23, r1
    1d90:	81 1d       	adc	r24, r1
    1d92:	91 1d       	adc	r25, r1
    1d94:	a1 1d       	adc	r26, r1
    1d96:	20 d0       	rcall	.+64     	; 0x1dd8 <__ultoa_invert+0x84>
    1d98:	09 f4       	brne	.+2      	; 0x1d9c <__ultoa_invert+0x48>
    1d9a:	68 94       	set
    1d9c:	3f 91       	pop	r19
    1d9e:	2a e0       	ldi	r18, 0x0A	; 10
    1da0:	26 9f       	mul	r18, r22
    1da2:	11 24       	eor	r1, r1
    1da4:	30 19       	sub	r19, r0
    1da6:	30 5d       	subi	r19, 0xD0	; 208
    1da8:	31 93       	st	Z+, r19
    1daa:	de f6       	brtc	.-74     	; 0x1d62 <__ultoa_invert+0xe>
    1dac:	cf 01       	movw	r24, r30
    1dae:	08 95       	ret
    1db0:	46 2f       	mov	r20, r22
    1db2:	47 70       	andi	r20, 0x07	; 7
    1db4:	40 5d       	subi	r20, 0xD0	; 208
    1db6:	41 93       	st	Z+, r20
    1db8:	b3 e0       	ldi	r27, 0x03	; 3
    1dba:	0f d0       	rcall	.+30     	; 0x1dda <__ultoa_invert+0x86>
    1dbc:	c9 f7       	brne	.-14     	; 0x1db0 <__ultoa_invert+0x5c>
    1dbe:	f6 cf       	rjmp	.-20     	; 0x1dac <__ultoa_invert+0x58>
    1dc0:	46 2f       	mov	r20, r22
    1dc2:	4f 70       	andi	r20, 0x0F	; 15
    1dc4:	40 5d       	subi	r20, 0xD0	; 208
    1dc6:	4a 33       	cpi	r20, 0x3A	; 58
    1dc8:	18 f0       	brcs	.+6      	; 0x1dd0 <__ultoa_invert+0x7c>
    1dca:	49 5d       	subi	r20, 0xD9	; 217
    1dcc:	31 fd       	sbrc	r19, 1
    1dce:	40 52       	subi	r20, 0x20	; 32
    1dd0:	41 93       	st	Z+, r20
    1dd2:	02 d0       	rcall	.+4      	; 0x1dd8 <__ultoa_invert+0x84>
    1dd4:	a9 f7       	brne	.-22     	; 0x1dc0 <__ultoa_invert+0x6c>
    1dd6:	ea cf       	rjmp	.-44     	; 0x1dac <__ultoa_invert+0x58>
    1dd8:	b4 e0       	ldi	r27, 0x04	; 4
    1dda:	a6 95       	lsr	r26
    1ddc:	97 95       	ror	r25
    1dde:	87 95       	ror	r24
    1de0:	77 95       	ror	r23
    1de2:	67 95       	ror	r22
    1de4:	ba 95       	dec	r27
    1de6:	c9 f7       	brne	.-14     	; 0x1dda <__ultoa_invert+0x86>
    1de8:	00 97       	sbiw	r24, 0x00	; 0
    1dea:	61 05       	cpc	r22, r1
    1dec:	71 05       	cpc	r23, r1
    1dee:	08 95       	ret
    1df0:	9b 01       	movw	r18, r22
    1df2:	ac 01       	movw	r20, r24
    1df4:	0a 2e       	mov	r0, r26
    1df6:	06 94       	lsr	r0
    1df8:	57 95       	ror	r21
    1dfa:	47 95       	ror	r20
    1dfc:	37 95       	ror	r19
    1dfe:	27 95       	ror	r18
    1e00:	ba 95       	dec	r27
    1e02:	c9 f7       	brne	.-14     	; 0x1df6 <__ultoa_invert+0xa2>
    1e04:	62 0f       	add	r22, r18
    1e06:	73 1f       	adc	r23, r19
    1e08:	84 1f       	adc	r24, r20
    1e0a:	95 1f       	adc	r25, r21
    1e0c:	a0 1d       	adc	r26, r0
    1e0e:	08 95       	ret

00001e10 <__prologue_saves__>:
    1e10:	2f 92       	push	r2
    1e12:	3f 92       	push	r3
    1e14:	4f 92       	push	r4
    1e16:	5f 92       	push	r5
    1e18:	6f 92       	push	r6
    1e1a:	7f 92       	push	r7
    1e1c:	8f 92       	push	r8
    1e1e:	9f 92       	push	r9
    1e20:	af 92       	push	r10
    1e22:	bf 92       	push	r11
    1e24:	cf 92       	push	r12
    1e26:	df 92       	push	r13
    1e28:	ef 92       	push	r14
    1e2a:	ff 92       	push	r15
    1e2c:	0f 93       	push	r16
    1e2e:	1f 93       	push	r17
    1e30:	cf 93       	push	r28
    1e32:	df 93       	push	r29
    1e34:	cd b7       	in	r28, 0x3d	; 61
    1e36:	de b7       	in	r29, 0x3e	; 62
    1e38:	ca 1b       	sub	r28, r26
    1e3a:	db 0b       	sbc	r29, r27
    1e3c:	0f b6       	in	r0, 0x3f	; 63
    1e3e:	f8 94       	cli
    1e40:	de bf       	out	0x3e, r29	; 62
    1e42:	0f be       	out	0x3f, r0	; 63
    1e44:	cd bf       	out	0x3d, r28	; 61
    1e46:	09 94       	ijmp

00001e48 <__epilogue_restores__>:
    1e48:	2a 88       	ldd	r2, Y+18	; 0x12
    1e4a:	39 88       	ldd	r3, Y+17	; 0x11
    1e4c:	48 88       	ldd	r4, Y+16	; 0x10
    1e4e:	5f 84       	ldd	r5, Y+15	; 0x0f
    1e50:	6e 84       	ldd	r6, Y+14	; 0x0e
    1e52:	7d 84       	ldd	r7, Y+13	; 0x0d
    1e54:	8c 84       	ldd	r8, Y+12	; 0x0c
    1e56:	9b 84       	ldd	r9, Y+11	; 0x0b
    1e58:	aa 84       	ldd	r10, Y+10	; 0x0a
    1e5a:	b9 84       	ldd	r11, Y+9	; 0x09
    1e5c:	c8 84       	ldd	r12, Y+8	; 0x08
    1e5e:	df 80       	ldd	r13, Y+7	; 0x07
    1e60:	ee 80       	ldd	r14, Y+6	; 0x06
    1e62:	fd 80       	ldd	r15, Y+5	; 0x05
    1e64:	0c 81       	ldd	r16, Y+4	; 0x04
    1e66:	1b 81       	ldd	r17, Y+3	; 0x03
    1e68:	aa 81       	ldd	r26, Y+2	; 0x02
    1e6a:	b9 81       	ldd	r27, Y+1	; 0x01
    1e6c:	ce 0f       	add	r28, r30
    1e6e:	d1 1d       	adc	r29, r1
    1e70:	0f b6       	in	r0, 0x3f	; 63
    1e72:	f8 94       	cli
    1e74:	de bf       	out	0x3e, r29	; 62
    1e76:	0f be       	out	0x3f, r0	; 63
    1e78:	cd bf       	out	0x3d, r28	; 61
    1e7a:	ed 01       	movw	r28, r26
    1e7c:	08 95       	ret

00001e7e <_exit>:
    1e7e:	f8 94       	cli

00001e80 <__stop_program>:
    1e80:	ff cf       	rjmp	.-2      	; 0x1e80 <__stop_program>
